******************************************************************************
                  TI ARM Linker Unix v16.9.4                   
******************************************************************************
>> Linked Tue Nov 14 15:16:20 2017

OUTPUT FILE NAME:   <rfWakeOnRadioTx_CC1310_LAUNCHXL_TI.out>
ENTRY POINT SYMBOL: "ResetISR"  address: 000074d5


MEMORY CONFIGURATION

         name            origin    length      used     unused   attr    fill
----------------------  --------  ---------  --------  --------  ----  --------
  FLASH                 00000000   00020000  00008d58  000172a8  R  X
  SRAM                  20000000   00005000  000021cc  00002e34  RW X


SEGMENT ALLOCATION MAP

run origin  load origin   length   init length attrs members
----------  ----------- ---------- ----------- ----- -------
00000000    00000000    00000360   00000360    r--
  00000000    00000000    0000003c   0000003c    r-- .resetVecs
  00000040    00000040    00000320   00000320    r-- .cinit
00001000    00001000    000089b0   000089b0    r-x
  00001000    00001000    0000003c   0000003c    r-- .const:ti_sysbios_knl_Task_Object__PARAMS__C
  0000103c    0000103c    00000034   00000034    r-- .const:ti_sysbios_knl_Mailbox_Object__PARAMS__C
  00001070    00001070    00000030   00000030    r-- .const:ti_sysbios_family_arm_m3_Hwi_Object__PARAMS__C
  000010a0    000010a0    0000002c   0000002c    r-- .const:ti_sysbios_hal_Hwi_Object__PARAMS__C
  000010cc    000010cc    00000028   00000028    r-- .const:ti_sysbios_heaps_HeapMem_Module__FXNS__C
  000010f4    000010f4    00000028   00000028    r-- .const:ti_sysbios_knl_Swi_Object__PARAMS__C
  0000111c    0000111c    00000024   00000024    r-- .const:ti_sysbios_gates_GateHwi_Module__FXNS__C
  00001140    00001140    00000024   00000024    r-- .const:ti_sysbios_gates_GateMutex_Module__FXNS__C
  00001164    00001164    00000024   00000024    r-- .const:ti_sysbios_heaps_HeapMem_Object__PARAMS__C
  00001188    00001188    00000024   00000024    r-- .const:ti_sysbios_knl_Clock_Object__PARAMS__C
  000011ac    000011ac    00000024   00000024    r-- .const:ti_sysbios_knl_Semaphore_Object__PARAMS__C
  000011d0    000011d0    00000020   00000020    r-- .const:ti_sysbios_family_arm_m3_Hwi_Object__DESC__C
  000011f0    000011f0    00000020   00000020    r-- .const:ti_sysbios_gates_GateHwi_Object__DESC__C
  00001210    00001210    00000020   00000020    r-- .const:ti_sysbios_gates_GateMutex_Object__DESC__C
  00001230    00001230    00000020   00000020    r-- .const:ti_sysbios_hal_Hwi_Object__DESC__C
  00001250    00001250    00000020   00000020    r-- .const:ti_sysbios_heaps_HeapMem_Object__DESC__C
  00001270    00001270    00000020   00000020    r-- .const:ti_sysbios_knl_Clock_Object__DESC__C
  00001290    00001290    00000020   00000020    r-- .const:ti_sysbios_knl_Mailbox_Object__DESC__C
  000012b0    000012b0    00000020   00000020    r-- .const:ti_sysbios_knl_Queue_Object__DESC__C
  000012d0    000012d0    00000020   00000020    r-- .const:ti_sysbios_knl_Semaphore_Object__DESC__C
  000012f0    000012f0    00000020   00000020    r-- .const:ti_sysbios_knl_Swi_Object__DESC__C
  00001310    00001310    00000020   00000020    r-- .const:ti_sysbios_knl_Task_Object__DESC__C
  00001330    00001330    00000018   00000018    r-- .const:ti_sysbios_gates_GateHwi_Object__PARAMS__C
  00001348    00001348    00000018   00000018    r-- .const:ti_sysbios_gates_GateMutex_Object__PARAMS__C
  00001360    00001360    00000018   00000018    r-- .const:ti_sysbios_knl_Queue_Object__PARAMS__C
  00001378    00001378    00000008   00000008    r-- .const:ti_sysbios_knl_Idle_funcList__C
  00001384    00001384    00000004   00000004    r-- .const:ti_sysbios_family_arm_cc26xx_Timer_startupNeeded__C
  00001388    00001388    00000004   00000004    r-- .const:ti_sysbios_family_arm_m3_Hwi_E_alreadyDefined__C
  0000138c    0000138c    00000004   00000004    r-- .const:ti_sysbios_family_arm_m3_Hwi_E_hwiLimitExceeded__C
  00001390    00001390    00000004   00000004    r-- .const:ti_sysbios_family_arm_m3_Hwi_NUM_INTERRUPTS__C
  00001394    00001394    00000004   00000004    r-- .const:ti_sysbios_family_arm_m3_Hwi_Object__count__C
  00001398    00001398    00000004   00000004    r-- .const:ti_sysbios_family_arm_m3_Hwi_Object__table__C
  0000139c    0000139c    00000004   00000004    r-- .const:ti_sysbios_family_arm_m3_Hwi_ccr__C
  000013a0    000013a0    00000004   00000004    r-- .const:ti_sysbios_family_arm_m3_Hwi_excHandlerFunc__C
  000013a4    000013a4    00000004   00000004    r-- .const:ti_sysbios_family_arm_m3_Hwi_nullIsrFunc__C
  000013a8    000013a8    00000004   00000004    r-- .const:ti_sysbios_family_arm_m3_Hwi_numSparseInterrupts__C
  000013ac    000013ac    00000004   00000004    r-- .const:ti_sysbios_family_arm_m3_Hwi_priGroup__C
  000013b0    000013b0    00000004   00000004    r-- .const:ti_sysbios_family_arm_m3_TaskSupport_stackAlignment__C
  000013b4    000013b4    00000004   00000004    r-- .const:ti_sysbios_heaps_HeapMem_E_memory__C
  000013b8    000013b8    00000004   00000004    r-- .const:ti_sysbios_heaps_HeapMem_Module__gateObj__C
  000013bc    000013bc    00000004   00000004    r-- .const:ti_sysbios_heaps_HeapMem_Object__count__C
  000013c0    000013c0    00000004   00000004    r-- .const:ti_sysbios_heaps_HeapMem_Object__table__C
  000013c4    000013c4    00000004   00000004    r-- .const:ti_sysbios_heaps_HeapMem_reqAlign__C
  000013c8    000013c8    00000004   00000004    r-- .const:ti_sysbios_knl_Clock_serviceMargin__C
  000013cc    000013cc    00000004   00000004    r-- .const:ti_sysbios_knl_Mailbox_Object__count__C
  000013d0    000013d0    00000004   00000004    r-- .const:ti_sysbios_knl_Mailbox_Object__table__C
  000013d4    000013d4    00000004   00000004    r-- .const:ti_sysbios_knl_Mailbox_maxTypeAlign__C
  000013d8    000013d8    00000004   00000004    r-- .const:ti_sysbios_knl_Queue_Object__count__C
  000013dc    000013dc    00000004   00000004    r-- .const:ti_sysbios_knl_Queue_Object__table__C
  000013e0    000013e0    00000004   00000004    r-- .const:ti_sysbios_knl_Swi_Object__count__C
  000013e4    000013e4    00000004   00000004    r-- .const:ti_sysbios_knl_Swi_Object__table__C
  000013e8    000013e8    00000004   00000004    r-- .const:ti_sysbios_knl_Swi_numPriorities__C
  000013ec    000013ec    00000004   00000004    r-- .const:ti_sysbios_knl_Task_Object__count__C
  000013f0    000013f0    00000004   00000004    r-- .const:ti_sysbios_knl_Task_Object__table__C
  000013f4    000013f4    00000004   00000004    r-- .const:ti_sysbios_knl_Task_allBlockedFunc__C
  000013f8    000013f8    00000004   00000004    r-- .const:ti_sysbios_knl_Task_defaultStackHeap__C
  000013fc    000013fc    00000004   00000004    r-- .const:ti_sysbios_knl_Task_defaultStackSize__C
  00001400    00001400    00000004   00000004    r-- .const:ti_sysbios_knl_Task_numConstructedTasks__C
  00001406    00001406    00000002   00000002    r-- .const:ti_sysbios_family_arm_cc26xx_Timer_Module__id__C
  00001408    00001408    00000002   00000002    r-- .const:ti_sysbios_family_arm_cc26xx_TimestampProvider_useClockTimer__C
  0000140a    0000140a    00000002   00000002    r-- .const:ti_sysbios_family_arm_m3_Hwi_Module__id__C
  0000140c    0000140c    00000002   00000002    r-- .const:ti_sysbios_gates_GateHwi_Module__id__C
  0000140e    0000140e    00000002   00000002    r-- .const:ti_sysbios_gates_GateMutex_Module__id__C
  00001410    00001410    00000002   00000002    r-- .const:ti_sysbios_heaps_HeapMem_Module__id__C
  00001412    00001412    00000002   00000002    r-- .const:ti_sysbios_knl_Task_initStackFlag__C
  00001414    00001414    00000001   00000001    r-- .const:ti_sysbios_knl_Clock_tickMode__C
  00001418    00001418    00000008   00000008    r-- .const:xdc_runtime_Startup_firstFxns__C
  00001420    00001420    00000008   00000008    r-- .const:xdc_runtime_Startup_lastFxns__C
  00001428    00001428    00000004   00000004    r-- .const:xdc_runtime_Assert_E_assertFailed__C
  0000142c    0000142c    00000004   00000004    r-- .const:xdc_runtime_Error_E_memory__C
  00001430    00001430    00000004   00000004    r-- .const:xdc_runtime_Error_policyFxn__C
  00001434    00001434    00000004   00000004    r-- .const:xdc_runtime_IGateProvider_Interface__BASE__C
  00001438    00001438    00000004   00000004    r-- .const:xdc_runtime_IHeap_Interface__BASE__C
  0000143c    0000143c    00000004   00000004    r-- .const:xdc_runtime_IModule_Interface__BASE__C
  00001440    00001440    00000004   00000004    r-- .const:xdc_runtime_Main_Module__diagsEnabled__C
  00001444    00001444    00000004   00000004    r-- .const:xdc_runtime_Main_Module__diagsIncluded__C
  00001448    00001448    00000004   00000004    r-- .const:xdc_runtime_Main_Module__diagsMask__C
  0000144c    0000144c    00000004   00000004    r-- .const:xdc_runtime_Memory_defaultHeapInstance__C
  00001450    00001450    00000004   00000004    r-- .const:xdc_runtime_Startup_execImpl__C
  00001454    00001454    00000004   00000004    r-- .const:xdc_runtime_Startup_maxPasses__C
  00001458    00001458    00000004   00000004    r-- .const:xdc_runtime_Startup_sfxnRts__C
  0000145c    0000145c    00000004   00000004    r-- .const:xdc_runtime_Startup_sfxnTab__C
  00001460    00001460    00000004   00000004    r-- .const:xdc_runtime_Startup_startModsFxn__C
  00001464    00001464    00000004   00000004    r-- .const:xdc_runtime_SysCallback_abortFxn__C
  00001468    00001468    00000004   00000004    r-- .const:xdc_runtime_SysCallback_exitFxn__C
  0000146c    0000146c    00000004   00000004    r-- .const:xdc_runtime_System_abortFxn__C
  00001470    00001470    00000004   00000004    r-- .const:xdc_runtime_System_exitFxn__C
  00001474    00001474    00000004   00000004    r-- .const:xdc_runtime_System_maxAtexitHandlers__C
  00001478    00001478    00000004   00000004    r-- .const:xdc_runtime_Text_charTab__C
  0000147c    0000147c    00000004   00000004    r-- .const:xdc_runtime_Text_nameEmpty__C
  00001480    00001480    00000004   00000004    r-- .const:xdc_runtime_Text_nameStatic__C
  00001484    00001484    00000004   00000004    r-- .const:xdc_runtime_Text_nameUnknown__C
  00001488    00001488    00000002   00000002    r-- .const:xdc_runtime_Main_Module__id__C
  0000148a    0000148a    00000002   00000002    r-- .const:xdc_runtime_Memory_Module__id__C
  0000148c    0000148c    00000002   00000002    r-- .const:xdc_runtime_Text_charCnt__C
  0000148e    0000148e    00000002   00000002    r-- .const:xdc_runtime_Text_isLoaded__C
  00001490    00001490    00000001   00000001    r-- .const:xdc_runtime_Error_policy__C
  00001494    00001494    00000004   00000004    r-- .const:ti_sysbios_rom_ROM_AONRTCChannelEnable
  00001498    00001498    00000004   00000004    r-- .const:ti_sysbios_rom_ROM_AONRTCCompareValueSet
  0000149c    0000149c    00000004   00000004    r-- .const:ti_sysbios_rom_ROM_AONRTCCurrentCompareValueGet
  000014a0    000014a0    00000004   00000004    r-- .const:ti_sysbios_rom_ROM_AONRTCEventClear
  000014a4    000014a4    00000004   00000004    r-- .const:ti_sysbios_rom_ROM_ti_sysbios_family_arm_cc26xx_Timer_getCount64__E
  000014a8    000014a8    00000004   00000004    r-- .const:ti_sysbios_rom_ROM_ti_sysbios_family_arm_cc26xx_Timer_getCurrentTick__E
  000014ac    000014ac    00000004   00000004    r-- .const:ti_sysbios_rom_ROM_ti_sysbios_family_arm_cc26xx_Timer_getMaxTicks__E
  000014b0    000014b0    00000004   00000004    r-- .const:ti_sysbios_rom_ROM_ti_sysbios_family_arm_cc26xx_Timer_initDevice__I
  000014b4    000014b4    00000004   00000004    r-- .const:ti_sysbios_rom_ROM_ti_sysbios_family_arm_cc26xx_Timer_setNextTick__E
  000014b8    000014b8    00000004   00000004    r-- .const:ti_sysbios_rom_ROM_ti_sysbios_family_arm_cc26xx_Timer_setThreshold__I
  000014bc    000014bc    00000004   00000004    r-- .const:ti_sysbios_rom_ROM_ti_sysbios_family_arm_cc26xx_Timer_start__E
  000014c0    000014c0    00000004   00000004    r-- .const:ti_sysbios_rom_ROM_ti_sysbios_family_arm_cc26xx_TimestampProvider_get32__E
  000014c4    000014c4    00000004   00000004    r-- .const:ti_sysbios_rom_ROM_xdc_runtime_Startup_getState__I
  000014c8    000014c8    00000004   00000004    r-- .const:ti_sysbios_rom_ROM_xdc_runtime_System_SupportProxy_abort__E
  000014cc    000014cc    00000004   00000004    r-- .const:ti_sysbios_rom_ROM_xdc_runtime_System_SupportProxy_exit__E
  000014d0    000014d0    00000004   00000004    r-- .const:ti_sysbios_gates_GateMutex_Instance_State_sem__O
  000014d4    000014d4    00000004   00000004    r-- .const:ti_sysbios_knl_Clock_Module_State_clockQ__O
  000014d8    000014d8    00000004   00000004    r-- .const:ti_sysbios_knl_Mailbox_Instance_State_dataQue__O
  000014dc    000014dc    00000004   00000004    r-- .const:ti_sysbios_knl_Mailbox_Instance_State_dataSem__O
  000014e0    000014e0    00000004   00000004    r-- .const:ti_sysbios_knl_Mailbox_Instance_State_freeQue__O
  000014e4    000014e4    00000004   00000004    r-- .const:ti_sysbios_knl_Mailbox_Instance_State_freeSem__O
  000014e8    000014e8    00000004   00000004    r-- .const:ti_sysbios_knl_Semaphore_Instance_State_pendQ__O
  000014ec    000014ec    00000004   00000004    r-- .const:ti_sysbios_knl_Task_Module_State_inactiveQ__O
  000014f0    000014f0    00007410   00007410    r-x .text
  00008900    00008900    000010b0   000010b0    r-- .const
0001ffa8    0001ffa8    00000058   00000058    r--
  0001ffa8    0001ffa8    00000058   00000058    r-- .ccfg
20000100    20000100    00000104   00000000    rw-
  20000100    20000100    00000044   00000000    rw- .data:ti_sysbios_knl_Task_Module__state__V
  20000144    20000144    00000034   00000000    rw- .data:ti_sysbios_family_arm_m3_Hwi_Module__state__V
  20000178    20000178    0000002c   00000000    rw- .data:ti_sysbios_knl_Clock_Module__state__V
  200001a4    200001a4    00000024   00000000    rw- .data:ti_sysbios_BIOS_Module__state__V
  200001c8    200001c8    0000001c   00000000    rw- .data:ti_sysbios_knl_Swi_Module__state__V
  200001e4    200001e4    00000008   00000000    rw- .data:ti_sysbios_family_arm_cc26xx_Timer_Module__state__V
  200001ec    200001ec    00000004   00000000    rw- .data:ti_sysbios_family_arm_cc26xx_TimestampProvider_Module__state__V
  200001f0    200001f0    00000008   00000000    rw- .data:xdc_runtime_Startup_Module__state__V
  200001f8    200001f8    00000008   00000000    rw- .data:xdc_runtime_System_Module__state__V
  20000200    20000200    00000004   00000000    rw- .data:xdc_runtime_Memory_Module__state__V
20000430    20000430    00000010   00000000    rw-
  20000430    20000430    00000010   00000000    rw- .TI.bound:dmaSpi0RxControlTableEntry
20000440    20000440    00000010   00000000    rw-
  20000440    20000440    00000010   00000000    rw- .TI.bound:dmaSpi0TxControlTableEntry
20000500    20000500    00000010   00000000    rw-
  20000500    20000500    00000010   00000000    rw- .TI.bound:dmaSpi1RxControlTableEntry
20000510    20000510    00001cd2   00000000    rw-
  20000510    20000510    00000010   00000000    rw- .TI.bound:dmaSpi1TxControlTableEntry
  20000520    20000520    000018be   00000000    rw- .bss
  20001de0    20001de0    00000402   00000000    rw- .data
20004d00    20004d00    00000300   00000000    rw-
  20004d00    20004d00    00000300   00000000    rw- .stack


SECTION ALLOCATION MAP

 output                                  attributes/
section   page    origin      length       input sections
--------  ----  ----------  ----------   ----------------
.text      0    000014f0    00007410     
                  000014f0    000003b8     rf_singleMode_cc13xxware.aem3 : RFCC26XX_singleMode.oem3 (.text:fsmActiveState)
                  000018a8    0000033c     rom_sysbios.aem3 : rom_sysbios.obj (.text:xdc_runtime_System_doPrint__I)
                  00001be4    000002e8     grlib.aem3 : string.oem3 (.text:GrStringDraw)
                  00001ecc    00000288     rfWakeOnRadioTx.obj (.text:txTaskFunction)
                  00002154    00000228     driverlib.lib : sys_ctrl.obj (.text:NOROM_SysCtrlSetRechargeBeforePowerDown)
                  0000237c    00000228     drivers_cc13xxware.aem3 : PowerCC26XX.oem3 (.text:Power_sleep)
                  000025a4    000001f4     rtsv7M3_T_le_eabi.lib : ull_div_t2.obj (.text)
                  00002798    000001ec     drivers_cc13xxware.aem3 : PowerCC26XX_calibrateRCOSC.oem3 (.text:calibrateRcoscHf1)
                  00002984    000001dc     rf_singleMode_cc13xxware.aem3 : RFCC26XX_singleMode.oem3 (.text:RF_postCmd)
                  00002b60    000001c4     drivers_cc13xxware.aem3 : PINCC26XX.oem3 (.text:PIN_init)
                  00002d24    000001b6     rtsv7M3_T_le_eabi.lib : fd_add_t2.obj (.text)
                  00002eda    00000002     display.aem3 : DisplayUart.oem3 (.text:DisplayUart_clear)
                  00002edc    000001a0     drivers_cc13xxware.aem3 : PowerCC26XX_calibrateRCOSC.oem3 (.text:PowerCC26XX_doCalibrate)
                  0000307c    000001a0                             : UARTCC26XX.oem3 (.text:UARTCC26XX_open)
                  0000321c    00000168     rf_singleMode_cc13xxware.aem3 : RFCC26XX_singleMode.oem3 (.text:fsmSetupState)
                  00003384    00000168     rfExamples_pem3.oem3 (.text:xdc_runtime_System_printfExtend__I)
                  000034ec    00000160     drivers_cc13xxware.aem3 : SPICC26XXDMA.oem3 (.text:SPICC26XXDMA_initIO)
                  0000364c    00000148                             : SPICC26XXDMA.oem3 (.text:SPICC26XXDMA_open)
                  00003794    00000140     display.aem3 : DisplaySharp.oem3 (.text:DisplaySharp_open)
                  000038d4    00000130     driverlib.lib : setup_rom.obj (.text:NOROM_SetupAfterColdResetWakeupFromShutDownCfg3)
                  00003a04    0000012c     drivers_cc13xxware.aem3 : PowerCC26XX.oem3 (.text:Power_init)
                  00003b30    00000128     rf_singleMode_cc13xxware.aem3 : RFCC26XX_singleMode.oem3 (.text:rf_init)
                  00003c58    00000128     smartrf_settings.obj (.text:rf_patch_rfe_genfsk)
                  00003d80    0000011c     drivers_cc13xxware.aem3 : UARTCC26XX.oem3 (.text:UARTCC26XX_read)
                  00003e9c    00000118     rf_singleMode_cc13xxware.aem3 : RFCC26XX_singleMode.oem3 (.text:hwiFxnCpe0Active)
                  00003fb4    00000110     drivers_cc13xxware.aem3 : UARTCC26XX.oem3 (.text:UARTCC26XX_hwiIntFxn)
                  000040c4    00000100     lcd.aem3 : SharpGrLib.oem3 (.text:SharpGrLib_flush)
                  000041c4    000000fc     drivers_cc13xxware.aem3 : UARTCC26XX.oem3 (.text:UARTCC26XX_write)
                  000042c0    000000fc     rtsv7M3_T_le_eabi.lib : fd_mul_t2.obj (.text)
                  000043bc    000000f4     drivers_cc13xxware.aem3 : SPICC26XXDMA.oem3 (.text:SPICC26XXDMA_configDMA)
                  000044b0    000000f0     driverlib.lib : setup_rom.obj (.text:NOROM_SetupAfterColdResetWakeupFromShutDownCfg2)
                  000045a0    000000f0     drivers_cc13xxware.aem3 : SPICC26XXDMA.oem3 (.text:SPICC26XXDMA_transferCancel)
                  00004690    000000e6     lcd.aem3 : SharpGrLib.oem3 (.text:SharpGrLib_rectFill)
                  00004776    000000e0     display.aem3 : DisplaySharp.oem3 (.text:DisplaySharp_put5)
                  00004856    00000002                  : DisplayUart.oem3 (.text:DisplayUart_clearLines)
                  00004858    000000e0     drivers_cc13xxware.aem3 : PINCC26XX.oem3 (.text:PINCC26XX_setIoCfg)
                  00004938    000000d8     driverlib.lib : rfc.obj (.text:NOROM_RFCRTrim)
                  00004a10    000000d4                   : rfc.obj (.text:NOROM_RFCRfTrimRead)
                  00004ae4    000000d4     power_cc13xx_tirtos.aem3 : PowerCC26XX_tirtos.oem3 (.text:PowerCC26XX_standbyPolicy)
                  00004bb8    000000d4     drivers_cc13xxware.aem3 : PowerCC26XX.oem3 (.text:Power_releaseDependency)
                  00004c8c    000000d4                             : SPICC26XXDMA.oem3 (.text:SPICC26XXDMA_control)
                  00004d60    000000d0     display.aem3 : DisplaySharp.oem3 (.text:DisplaySharp_control)
                  00004e30    000000d0     drivers_cc13xxware.aem3 : PowerCC26XX.oem3 (.text:Power_setDependency)
                  00004f00    000000cc     rf_singleMode_cc13xxware.aem3 : RFCC26XX_singleMode.oem3 (.text:RF_open)
                  00004fcc    000000c8     drivers_cc13xxware.aem3 : UARTCC26XX.oem3 (.text:UARTCC26XX_initHw)
                  00005094    000000c8     rfWakeOnRadioTx.obj (.text:main)
                  0000515c    000000c4     rf_singleMode_cc13xxware.aem3 : RFCC26XX_singleMode.oem3 (.text:fsmPowerUpState)
                  00005220    000000c0     driverlib.lib : setup.obj (.text:TrimAfterColdResetWakeupFromShutDown)
                  000052e0    000000bc     lcd.aem3 : SharpGrLib.oem3 (.text:SharpGrLib_clearScreen)
                  0000539c    000000b0     drivers_cc13xxware.aem3 : SPICC26XXDMA.oem3 (.text:SPICC26XXDMA_transfer)
                  0000544c    000000aa     lcd.aem3 : SharpGrLib.oem3 (.text:SharpGrLib_lineDrawH)
                  000054f6    00000002     drivers_cc13xxware.aem3 : SPICC26XXDMA.oem3 (.text:SPICC26XXDMA_serviceISR)
                  000054f8    000000a8     driverlib.lib : setup.obj (.text:NOROM_SetupTrimDevice)
                  000055a0    000000a4                   : setup_rom.obj (.text:NOROM_SetupAfterColdResetWakeupFromShutDownCfg1)
                  00005644    000000a2     drivers_cc13xxware.aem3 : SPICC26XXDMA.oem3 (.text:SPICC26XXDMA_hwiFxn)
                  000056e6    00000002     rf_singleMode_cc13xxware.aem3 : RFCC26XX_singleMode.oem3 (.text:defaultErrCb)
                  000056e8    000000a0     auto_init.aem3 : auto_init.oem3 (.text)
                  00005788    0000009c     rtsv7M3_T_le_eabi.lib : memcpy_t2.obj (.text)
                  00005824    00000098     rom_sysbios.aem3 : rom_sysbios.obj (.text:ti_sysbios_knl_Clock_workFuncDynamic__E)
                  000058bc    00000094     drivers_cc13xxware.aem3 : PINCC26XX.oem3 (.text:PIN_open)
                  00005950    00000094                             : UARTCC26XX.oem3 (.text:writeFinishedDoCallback)
                  000059e4    00000090                             : PowerCC26XX.oem3 (.text:switchXOSCHFclockFunc)
                  00005a74    0000008c                             : UARTCC26XX.oem3 (.text:UARTCC26XX_initIO)
                  00005b00    0000008c                             : UARTCC26XX.oem3 (.text:UARTCC26XX_writeCancel)
                  00005b8c    0000008c                             : PowerCC26XX.oem3 (.text:disableLFClockQualifiers)
                  00005c18    00000088     grlib.aem3 : rectangle.oem3 (.text:GrRectFill)
                  00005ca0    00000088     drivers_cc13xxware.aem3 : PowerCC26XX_calibrateRCOSC.oem3 (.text:calibrateRcoscHf2)
                  00005d28    00000086     rtsv7M3_T_le_eabi.lib : fd_cmp_t2.obj (.text:__aeabi_cdcmple)
                  00005dae    00000086                           : fd_cmp_t2.obj (.text:__aeabi_cdrcmple)
                  00005e34    00000084     rf_singleMode_cc13xxware.aem3 : RFCC26XX_singleMode.oem3 (.text:swiFxnHw)
                  00005eb8    00000080                                   : RFCC26XX_singleMode.oem3 (.text:RF_pendCmd)
                  00005f38    0000007a     rtsv7M3_T_le_eabi.lib : memset_t2.obj (.text)
                  00005fb2    00000002     drivers_cc13xxware.aem3 : PowerCC26XX.oem3 (.text:emptyClockFunc)
                  00005fb4    00000078                             : UARTCC26XX.oem3 (.text:UARTCC26XX_close)
                  0000602c    00000074     driverlib.lib : setup_rom.obj (.text:NOROM_SetupSetVddrLevel)
                  000060a0    00000074     drivers_cc13xxware.aem3 : PowerCC26XX_calibrateRCOSC.oem3 (.text:PowerCC26XX_auxISR)
                  00006114    00000074     rf_singleMode_cc13xxware.aem3 : RFCC26XX_singleMode.oem3 (.text:decActiveClientCnt)
                  00006188    00000074                                   : RFCC26XX_singleMode.oem3 (.text:fsmPowerDownState)
                  000061fc    00000074     rom_sysbios.aem3 : rom_sysbios.obj (.text:ti_sysbios_family_arm_cc26xx_Timer_start__E)
                  00006270    00000074     drivers_cc13xxware.aem3 : UARTCC26XX.oem3 (.text:writeTxFifoFlush)
                  000062e4    00000070     driverlib.lib : chipinfo.obj (.text:NOROM_ChipInfo_GetHwRevision)
                  00006354    0000006d     rom_sysbios.aem3 : rom_sysbios.obj (.text:xdc_runtime_System_formatNum__I)
                  000063c1    00000001     --HOLE-- [fill = 0]
                  000063c2    00000002     smartrf_settings.obj (.text:enterGenfskSysPatch)
                  000063c4    0000006c     driverlib.lib : setup_rom.obj (.text:NOROM_SetupGetTrimForAmpcompCtrl)
                  00006430    0000006c     drivers_cc13xxware.aem3 : PINCC26XX.oem3 (.text:PIN_add)
                  0000649c    0000006c                             : PowerCC26XX.oem3 (.text:PowerCC26XX_calibrate)
                  00006508    0000006c                             : UARTCC26XX.oem3 (.text:UARTCC26XX_readCancel)
                  00006574    00000068     driverlib.lib : setup_rom.obj (.text:NOROM_SetupGetTrimForAnabypassValue1)
                  000065dc    00000068                   : sys_ctrl.obj (.text:NOROM_SysCtrl_DCDC_VoltageConditionalControl)
                  00006644    00000068     rf_singleMode_cc13xxware.aem3 : RFCC26XX_singleMode.oem3 (.text:RF_getCurrentTime)
                  000066ac    00000068     rtsv7M3_T_le_eabi.lib : copy_decompress_lzss.obj (.text:decompress:lzss)
                  00006714    00000064     driverlib.lib : osc.obj (.text:NOROM_OSCHF_AttemptToSwitchToXosc)
                  00006778    00000064     drivers_cc13xxware.aem3 : UARTCC26XX.oem3 (.text:UARTCC26XX_control)
                  000067dc    00000064     rfWakeOnRadioTx.obj (.text:txTaskInit)
                  00006840    00000060     display.aem3 : DisplaySharp.oem3 (.text:DisplaySharp_clearLines)
                  000068a0    00000060     driverlib.lib : osc.obj (.text:NOROM_OSCClockSourceSet)
                  00006900    00000060     drivers_cc13xxware.aem3 : PowerCC26XX_calibrateRCOSC.oem3 (.text:PowerCC26XX_RCOSC_clockFunc)
                  00006960    00000060                             : SPICC26XXDMA.oem3 (.text:SPICC26XXDMA_initHw)
                  000069c0    00000060     rf_singleMode_cc13xxware.aem3 : RFCC26XX_singleMode.oem3 (.text:fsmXOSCState)
                  00006a20    00000060     drivers_cc13xxware.aem3 : PowerCC26XX_calibrateRCOSC.oem3 (.text:updateSubSecInc)
                  00006a80    0000005c     driverlib.lib : sys_ctrl.obj (.text:NOROM_SysCtrlAdjustRechargeAfterPowerDown)
                  00006adc    0000005c     drivers_cc13xxware.aem3 : PINCC26XX.oem3 (.text:PIN_remove)
                  00006b38    0000005c                             : UDMACC26XX.oem3 (.text:UDMACC26XX_open)
                  00006b94    0000005c     smartrf_settings.obj (.text:configureGenfskPatch)
                  00006bf0    0000005c     rfExamples_pem3.oem3 (.text:xdc_runtime_Startup_getState__I)
                  00006c4c    0000005a     drivers_cc13xxware.aem3 : SPICC26XXDMA.oem3 (.text:SPICC26XXDMA_close)
                  00006ca6    00000058     display.aem3 : DisplayUart.oem3 (.text:DisplayUart_put5)
                  00006cfe    00000002     rtsv7M3_T_le_eabi.lib : i_div0.obj (.text)
                  00006d00    00000058     drivers_cc13xxware.aem3 : PowerCC26XX_calibrateRCOSC.oem3 (.text:PowerCC26XX_initiateCalibration)
                  00006d58    00000058     lcd.aem3 : SharpGrLib.oem3 (.text:SharpGrLib_lineDrawV)
                  00006db0    00000054     drivers_cc13xxware.aem3 : SPICC26XXDMA.oem3 (.text:SPICC26XXDMA_swiFxn)
                  00006e04    00000054                             : PowerCC26XX.oem3 (.text:configureXOSCHF)
                  00006e58    00000054     rf_singleMode_cc13xxware.aem3 : RFCC26XX_singleMode.oem3 (.text:hwiFxnHw)
                  00006eac    00000054                                   : RFCC26XX_singleMode.oem3 (.text:ratChanFree)
                  00006f00    00000050     driverlib.lib : setup_rom.obj (.text:NOROM_SetupSetCacheModeAccordingToCcfgSetting)
                  00006f50    00000050     rf_singleMode_cc13xxware.aem3 : RFCC26XX_singleMode.oem3 (.text:dispatchOpWhen)
                  00006fa0    00000050                                   : RFCC26XX_singleMode.oem3 (.text:syncCb)
                  00006ff0    0000004e     grlib.aem3 : line.oem3 (.text:GrLineDrawH)
                  0000703e    0000004c     display.aem3 : DisplayUart.oem3 (.text:DisplayUart_open)
                  0000708a    00000002     rom_sysbios.aem3 : rom_sysbios.obj (.text:ti_sysbios_BIOS_linkedWithIncorrectBootLibrary__E)
                  0000708c    0000004c     rf_singleMode_cc13xxware.aem3 : RFCC26XX_singleMode.oem3 (.text:applyRfCorePatch)
                  000070d8    0000004c     rtsv7M3_T_le_eabi.lib : cpy_tbl.obj (.text)
                  00007124    0000004c                           : rand.obj (.text)
                  00007170    0000004c     drivers_cc13xxware.aem3 : UARTCC26XX.oem3 (.text:startTxFifoEmptyClk)
                  000071bc    0000004a     display.aem3 : DisplaySharp.oem3 (.text:DisplaySharp_close)
                  00007206    0000004a     lcd.aem3 : SharpGrLib.oem3 (.text:SharpGrLib_drawMultiple)
                  00007250    00000048     display.aem3 : Display.oem3 (.text:Display_doOpen)
                  00007298    00000048     driverlib.lib : chipinfo.obj (.text:NOROM_ChipInfo_GetChipFamily)
                  000072e0    00000048     drivers_cc13xxware.aem3 : PINCC26XX.oem3 (.text:PIN_setOutputEnable)
                  00007328    00000048                             : PINCC26XX.oem3 (.text:PIN_swi)
                  00007370    00000048     rf_singleMode_cc13xxware.aem3 : RFCC26XX_singleMode.oem3 (.text:RF_runCmd)
                  000073b8    00000048     drivers_cc13xxware.aem3 : PowerCC26XX.oem3 (.text:notify)
                  00007400    00000048     rtsv7M3_T_le_eabi.lib : fd_toi_t2.obj (.text)
                  00007448    00000046     drivers_cc13xxware.aem3 : RingBuf.oem3 (.text:RingBuf_put)
                  0000748e    00000046     rfWakeOnRadioTx.obj (.text:initializeTxAdvCmdFromTxCmd)
                  000074d4    00000044     boot.aem3 : boot.oem3 (.text)
                  00007518    00000044     rtsv7M3_T_le_eabi.lib : fd_tou_t2.obj (.text)
                  0000755c    00000042     lcd.aem3 : SharpGrLib.oem3 (.text:SharpGrLib_pixelDraw)
                  0000759e    00000040     drivers_cc13xxware.aem3 : RingBuf.oem3 (.text:RingBuf_get)
                  000075de    00000040     rtsv7M3_T_le_eabi.lib : u_divt2.obj (.text)
                  0000761e    00000002     rfExamples_pem3.oem3 (.text:ti_sysbios_BIOS_nullFunc__I)
                  00007620    0000003c     driverlib.lib : osc.obj (.text:NOROM_OSC_HPOSCRelativeFrequencyOffsetGet)
                  0000765c    0000003c                   : rfc.obj (.text:NOROM_RFCSynthPowerDown)
                  00007698    0000003c     drivers_cc13xxware.aem3 : PINCC26XX.oem3 (.text:PINCC26XX_getConfig)
                  000076d4    0000003c                             : PINCC26XX.oem3 (.text:PIN_setOutputValue)
                  00007710    0000003c                             : SPICC26XXDMA.oem3 (.text:SPICC26XXDMA_csnCallback)
                  0000774c    0000003c                             : UARTCC26XX.oem3 (.text:UARTCC26XX_swiIntFxn)
                  00007788    00000038                             : PINCC26XX.oem3 (.text:PIN_setInterrupt)
                  000077c0    00000038                             : UARTCC26XX.oem3 (.text:readData)
                  000077f8    00000038     rtsv7M3_T_le_eabi.lib : fs_tod_t2.obj (.text)
                  00007830    00000038     rom_sysbios.aem3 : rom_sysbios.obj (.text:ti_sysbios_family_arm_cc26xx_Timer_getCurrentTick__E)
                  00007868    00000038     drivers_cc13xxware.aem3 : UARTCC26XX.oem3 (.text:writeData)
                  000078a0    00000036                             : UDMACC26XX.oem3 (.text:UDMACC26XX_close)
                  000078d6    00000036     rf_singleMode_cc13xxware.aem3 : RFCC26XX_singleMode.oem3 (.text:updateImplicitState)
                  0000790c    00000034     driverlib.lib : osc.obj (.text:NOROM_OSCHF_SwitchToRcOscTurnOffXosc)
                  00007940    00000034     drivers_cc13xxware.aem3 : PINCC26XX.oem3 (.text:PIN_setConfig)
                  00007974    00000034     rf_singleMode_cc13xxware.aem3 : RFCC26XX_singleMode.oem3 (.text:Q_push)
                  000079a8    00000034     drivers_cc13xxware.aem3 : UARTCC26XX.oem3 (.text:readData2RingBuf)
                  000079dc    00000034     rom_sysbios.aem3 : rom_sysbios.obj (.text:ti_sysbios_family_arm_cc26xx_Timer_initDevice__I)
                  00007a10    00000032     display.aem3 : DisplaySharp.oem3 (.text:DisplaySharp_clear)
                  00007a42    00000032     rom_sysbios.aem3 : rom_sysbios.obj (.text:ti_sysbios_family_arm_cc26xx_Timer_setNextTick__E)
                  00007a74    00000030     driverlib.lib : setup_rom.obj (.text:NOROM_SetupSetAonRtcSubSecInc)
                  00007aa4    00000030     drivers_cc13xxware.aem3 : PowerCC26XX.oem3 (.text:Power_releaseConstraint)
                  00007ad4    00000030                             : PowerCC26XX.oem3 (.text:Power_setConstraint)
                  00007b04    00000030                             : SPI.oem3 (.text:SPI_open)
                  00007b34    00000030                             : UART.oem3 (.text:UART_open)
                  00007b64    00000030     rf_singleMode_cc13xxware.aem3 : RFCC26XX_singleMode.oem3 (.text:clkPowerUpFxn)
                  00007b94    00000030     rfExamples_pem3.oem3 (.text:ti_sysbios_BIOS_atExitFunc__I)
                  00007bc4    00000030     rfExamples_pem3.oem3 (.text:ti_sysbios_BIOS_startFunc__I)
                  00007bf4    00000030     rom_sysbios.aem3 : rom_sysbios.obj (.text:ti_sysbios_family_arm_cc26xx_Timer_setThreshold__I)
                  00007c24    0000002e     lcd.aem3 : SharpGrLib.oem3 (.text:SharpGrLib_initializeDisplayBuffer)
                  00007c52    0000002e     rtsv7M3_T_le_eabi.lib : i_tofd_t2.obj (.text)
                  00007c80    0000002c     driverlib.lib : ddi.obj (.text:NOROM_DDI32RegWrite)
                  00007cac    0000002c                   : osc.obj (.text:NOROM_OSCClockSourceGet)
                  00007cd8    0000002c                   : setup_rom.obj (.text:NOROM_SetupGetTrimForRadcExtCfg)
                  00007d04    0000002c     drivers_cc13xxware.aem3 : PINCC26XX.oem3 (.text:PINCC26XX_setMux)
                  00007d30    0000002c     lcd.aem3 : SharpGrLib.oem3 (.text:SharpGrLib_init)
                  00007d5c    0000002c     rfWakeOnRadioTx.obj (.text:buttonCallbackFunction)
                  00007d88    0000002c     rf_singleMode_cc13xxware.aem3 : RFCC26XX_singleMode.oem3 (.text:getCmd)
                  00007db4    0000002c     rom_sysbios.aem3 : rom_sysbios.obj (.text:ti_sysbios_knl_Clock_getTicksUntilInterrupt__E)
                  00007de0    0000002a                      : rom_sysbios.obj (.text:xdc_runtime_System_putchar__I)
                  00007e0a    00000002                      : rom_sysbios.obj (.text:ti_sysbios_knl_Clock_triggerFunc__I)
                  00007e0c    00000028     driverlib.lib : aon_batmon.obj (.text:NOROM_AONBatMonTemperatureGetDegC)
                  00007e34    00000028     drivers_cc13xxware.aem3 : PowerCC26XX.oem3 (.text:Power_registerNotify)
                  00007e5c    00000028                             : SPICC26XXDMA.oem3 (.text:SPICC26XXDMA_flushFifos)
                  00007e84    00000028     driverlib.lib : adi.obj (.text:SafeHapiVoid)
                  00007eac    00000026     display.aem3 : Display.oem3 (.text:Display_doPut5)
                  00007ed2    00000026     drivers_cc13xxware.aem3 : List.oem3 (.text:List_put)
                  00007ef8    00000024                             : PINCC26XX.oem3 (.text:PINCC26XX_getPinCount)
                  00007f1c    00000024                             : PowerCC26XX_calibrateRCOSC.oem3 (.text:getTdcSemaphore)
                  00007f40    00000024     rf_singleMode_cc13xxware.aem3 : RFCC26XX_singleMode.oem3 (.text:hwiFxnCpe0PowerFsm)
                  00007f64    00000024     rfExamples_pem3.oem3 (.text:ti_sysbios_BIOS_registerRTSLock__I)
                  00007f88    00000024     rfExamples_pem3.oem3 (.text:ti_sysbios_BIOS_removeRTSLock__I)
                  00007fac    00000024     rom_sysbios.aem3 : rom_sysbios.obj (.text:ti_sysbios_family_arm_cc26xx_Timer_getMaxTicks__E)
                  00007fd0    00000022     grlib.aem3 : context.oem3 (.text:GrContextInit)
                  00007ff2    00000002     rfExamples_pem3.oem3 (.text:ti_sysbios_rom_cortexm_cc13xx_CC13xx_badRomRevision__E)
                  00007ff4    00000020     driverlib.lib : rfc.obj (.text:NOROM_RFCAdi3VcoLdoVoltageMode)
                  00008014    00000020                   : rfc.obj (.text:NOROM_RFCDoorbellSendTo)
                  00008034    00000020                   : setup_rom.obj (.text:NOROM_SetupGetTrimForXoscHfCtl)
                  00008054    00000020     drivers_cc13xxware.aem3 : PowerCC26XX.oem3 (.text:Power_unregisterNotify)
                  00008074    00000020     rf_singleMode_cc13xxware.aem3 : RFCC26XX_singleMode.oem3 (.text:allocCmd)
                  00008094    00000020     rfExamples_pem3.oem3 (.text:ti_sysbios_BIOS_rtsLock__I)
                  000080b4    00000020     rom_sysbios.aem3 : rom_sysbios.obj (.text:ti_sysbios_family_arm_cc26xx_Timer_dynamicStub__E)
                  000080d4    00000020                      : rom_sysbios.obj (.text:ti_sysbios_knl_Clock_stop__E)
                  000080f4    0000001e     drivers_cc13xxware.aem3 : PINCC26XX.oem3 (.text:PIN_close)
                  00008112    0000001e                             : PowerCC26XX.oem3 (.text:Power_getTransitionLatency)
                  00008130    0000001c     driverlib.lib : setup_rom.obj (.text:NOROM_SetupGetTrimForAmpcompTh2)
                  0000814c    0000001c                   : setup_rom.obj (.text:NOROM_SetupGetTrimForRcOscLfRtuneCtuneTrim)
                  00008168    0000001c     drivers_cc13xxware.aem3 : PINCC26XX.oem3 (.text:PINCC26XX_setIoCfgMux)
                  00008184    0000001c                             : PINCC26XX.oem3 (.text:PIN_hwi)
                  000081a0    0000001c                             : UDMACC26XX.oem3 (.text:UDMACC26XX_initHw)
                  000081bc    0000001c     smartrf_settings.obj (.text:enterGenfskCpePatch)
                  000081d8    0000001a     drivers_cc13xxware.aem3 : List.oem3 (.text:List_remove)
                  000081f2    0000001a     grlib.aem3 : string.oem3 (.text:NumLeadingZeros)
                  0000820c    0000001a     rom_sysbios.aem3 : rom_sysbios_config.obj (.text:xdc_runtime_System_snprintf__E)
                  00008226    00000018     display.aem3 : DisplayUart.oem3 (.text:DisplayUart_close)
                  0000823e    00000002     rom_sysbios.aem3 : rom_sysbios.obj (.text:xdc_runtime_SysCallback_defaultAbort)
                  00008240    00000018     driverlib.lib : aon_rtc.obj (.text:NOROM_AONRTCCurrentCompareValueGet)
                  00008258    00000018                   : chipinfo.obj (.text:NOROM_ChipInfo_GetPackageType)
                  00008270    00000018                   : osc.obj (.text:NOROM_OSCHF_TurnOnXosc)
                  00008288    00000018                   : rfc.obj (.text:NOROM_RFCCpeIntGetAndClear)
                  000082a0    00000018                   : setup_rom.obj (.text:NOROM_SetupGetTrimForAdcShModeEn)
                  000082b8    00000018                   : setup_rom.obj (.text:NOROM_SetupGetTrimForAdcShVbufEn)
                  000082d0    00000018                   : setup_rom.obj (.text:NOROM_SetupGetTrimForAmpcompTh1)
                  000082e8    00000018                   : setup_rom.obj (.text:NOROM_SetupGetTrimForDblrLoopFilterResetVoltage)
                  00008300    00000018                   : setup_rom.obj (.text:NOROM_SetupGetTrimForRcOscLfIBiasTrim)
                  00008318    00000018                   : setup_rom.obj (.text:NOROM_SetupGetTrimForXoscLfRegulatorAndCmirrwrRatio)
                  00008330    00000018     drivers_cc13xxware.aem3 : PINCC26XX.oem3 (.text:PIN_getConfig)
                  00008348    00000018                             : PowerCC26XX.oem3 (.text:Power_idleFunc)
                  00008360    00000018     rf_singleMode_cc13xxware.aem3 : RFCC26XX_singleMode.oem3 (.text:Q_pop)
                  00008378    00000018     drivers_cc13xxware.aem3 : UARTCC26XX.oem3 (.text:UARTCC26XX_init)
                  00008390    00000018                             : UART.oem3 (.text:UART_Params_init)
                  000083a8    00000018                             : PowerCC26XX.oem3 (.text:configureRFCoreClocks)
                  000083c0    00000018     lcd.aem3 : SharpGrLib.oem3 (.text:reverse)
                  000083d8    00000018     rtsv7M3_T_le_eabi.lib : args_main.obj (.text)
                  000083f0    00000018                           : ll_mul_t2.obj (.text)
                  00008408    00000018     rf_singleMode_cc13xxware.aem3 : RFCC26XX_singleMode.oem3 (.text:swiFxnFsm)
                  00008420    00000018     rfExamples_pem3.oem3 (.text:ti_sysbios_BIOS_rtsUnlock__I)
                  00008438    00000018     rom_sysbios.aem3 : rom_sysbios.obj (.text:ti_sysbios_knl_Swi_or__E)
                  00008450    00000018     rfExamples_pem3.oem3 (.text:ti_sysbios_rom_cortexm_cc13xx_CC13xx_checkRevision__E)
                  00008468    00000016     driverlib.lib : chipinfo.obj (.text:NOROM_ThisCodeIsBuiltForCC13xxHwRev20AndLater_HaltIfViolated)
                  0000847e    00000016     rfExamples_pem3.oem3 (.text:ti_sysbios_BIOS_exitFunc__I)
                  00008494    00000016     rfWakeOnRadioTx.obj (.text:ti_sysbios_knl_Task_Params_init)
                  000084aa    00000002     rom_sysbios.aem3 : rom_sysbios.obj (.text:xdc_runtime_SysCallback_defaultExit)
                  000084ac    00000014     driverlib.lib : aon_rtc.obj (.text:NOROM_AONRTCCurrent64BitValueGet)
                  000084c0    00000014     drivers_cc13xxware.aem3 : PINCC26XX.oem3 (.text:PINCC26XX_getInputValue)
                  000084d4    00000014                             : PINCC26XX.oem3 (.text:PINCC26XX_getOutputValue)
                  000084e8    00000014     rf_singleMode_cc13xxware.aem3 : RFCC26XX_singleMode.oem3 (.text:RF_Params_init)
                  000084fc    00000014     drivers_cc13xxware.aem3 : SPI.oem3 (.text:SPI_Params_init)
                  00008510    00000014     rtsv7M3_T_le_eabi.lib : _lock.obj (.text)
                  00008524    00000014                           : strlen.obj (.text)
                  00008538    00000014     rfExamples_pem3.oem3 (.text:ti_sysbios_knl_Clock_doTick__I)
                  0000854c    00000012     drivers_cc13xxware.aem3 : RingBuf.oem3 (.text:RingBuf_construct)
                  0000855e    00000012     rfExamples_pem3.oem3 (.text:xdc_runtime_Startup_exec__I)
                  00008570    00000010     rf_singleMode_cc13xxware.aem3 : RFCC26XX_singleMode.oem3 (.text:FsmDispatch)
                  00008580    00000010     driverlib.lib : rfc.obj (.text:NOROM_RFCRfTrimSet)
                  00008590    00000010                   : setup_rom.obj (.text:NOROM_SetupGetTrimForXoscHfFastStart)
                  000085a0    00000010                   : setup_rom.obj (.text:NOROM_SetupGetTrimForXoscHfIbiastherm)
                  000085b0    00000010     smartrf_settings.obj (.text:applyGenfskPatch)
                  000085c0    00000010     rom_sysbios.aem3 : rom_sysbios.obj (.text:ti_sysbios_family_arm_m3_Hwi_post__E)
                  000085d0    00000010     drivers_cc13xxware.aem3 : UARTCC26XX.oem3 (.text:uartPostNotify)
                  000085e0    00000010     rom_sysbios.aem3 : rom_sysbios.obj (.text:xdc_runtime_SysCallback_putch__E)
                  000085f0    00000010                      : rom_sysbios.obj (.text:xdc_runtime_SysCallback_ready__E)
                  00008600    00000010                      : rom_sysbios.obj (.text:xdc_runtime_System_vsnprintf__E)
                  00008610    0000000e     driverlib.lib : vims.obj (.text:NOROM_VIMSModeGet)
                  0000861e    0000000e     drivers_cc13xxware.aem3 : SPICC26XXDMA.oem3 (.text:SPICC26XXDMA_init)
                  0000862c    0000000e     rtsv7M3_T_le_eabi.lib : copy_decompress_none.obj (.text:decompress:none)
                  0000863a    0000000e     rom_sysbios.aem3 : rom_sysbios.obj (.text:ti_sysbios_family_arm_cc26xx_TimestampProvider_get32__E)
                  00008648    0000000c     rf_singleMode_cc13xxware.aem3 : RFCC26XX_singleMode.oem3 (.text:FsmNextState)
                  00008654    0000000c     driverlib.lib : cpu.obj (.text:NOROM_CPUcpsid)
                  00008660    0000000c                   : cpu.obj (.text:NOROM_CPUcpsie)
                  0000866c    0000000c     drivers_cc13xxware.aem3 : PINCC26XX.oem3 (.text:PIN_registerIntCb)
                  00008678    0000000c                             : PowerCC26XX.oem3 (.text:Power_getConstraintMask)
                  00008684    0000000c                             : PowerCC26XX.oem3 (.text:Power_getDependencyCount)
                  00008690    0000000c     rtsv7M3_T_le_eabi.lib : copy_zero_init.obj (.text:decompress:ZI)
                  0000869c    0000000c     drivers_cc13xxware.aem3 : SPICC26XXDMA.oem3 (.text:spiPostNotify)
                  000086a8    0000000c     rfWakeOnRadioTx.obj (.text:ti_sysbios_knl_Semaphore_handle)
                  000086b4    0000000c     rom_sysbios.aem3 : rom_sysbios.obj (.text:ti_sysbios_knl_Swi_getTrigger__E)
                  000086c0    0000000c     rfExamples_pem3.oem3 (.text:xdc_runtime_Startup_reset__I)
                  000086cc    0000000c     rom_sysbios.aem3 : rom_sysbios.obj (.text:xdc_runtime_Startup_rtsDone__E)
                  000086d8    0000000a     drivers_cc13xxware.aem3 : List.oem3 (.text:List_empty)
                  000086e2    0000000a                             : SPI.oem3 (.text:SPI_close)
                  000086ec    0000000a                             : SPI.oem3 (.text:SPI_transfer)
                  000086f6    0000000a     lcd.aem3 : SharpGrLib.oem3 (.text:SharpGrLib_colorTranslate)
                  00008700    0000000a     drivers_cc13xxware.aem3 : UART.oem3 (.text:UART_close)
                  0000870a    0000000a                             : UART.oem3 (.text:UART_write)
                  00008714    0000000a                             : UDMACC26XX.oem3 (.text:UDMACC26XX_hwiIntFxn)
                  0000871e    00000002     rom_sysbios.aem3 : rom_sysbios.obj (.text:xdc_runtime_SysCallback_defaultPutch)
                  00008720    00000008     display.aem3 : DisplaySharp.oem3 (.text:DisplaySharp_getType)
                  00008728    00000008     drivers_cc13xxware.aem3 : SPICC26XXDMA.oem3 (.text:SPICC26XXDMA_transferCallback)
                  00008730    00000008                             : UARTCC26XX.oem3 (.text:readSemCallback)
                  00008738    00000008     smartrf_settings.obj (.text:rf_patch_cpe_genfsk)
                  00008740    00000008     drivers_cc13xxware.aem3 : UARTCC26XX.oem3 (.text:writeSemCallback)
                  00008748    00000006     display.aem3 : DisplayUart.oem3 (.text:DisplayUart_control)
                  0000874e    00000006                  : DisplayUart.oem3 (.text:DisplayUart_getType)
                  00008754    00000006                  : Display.oem3 (.text:Display_doParamsInit)
                  0000875a    00000006     driverlib.lib : cpu.obj (.text:NOROM_CPUdelay)
                  00008760    00000006     drivers_cc13xxware.aem3 : UARTCC26XX.oem3 (.text:UARTCC26XX_readPolling)
                  00008766    00000006                             : UARTCC26XX.oem3 (.text:UARTCC26XX_writePolling)
                  0000876c    00000006     rf_singleMode_cc13xxware.aem3 : RFCC26XX_singleMode.oem3 (.text:clkInactivityFxn)
                  00008772    00000006     rom_sysbios.aem3 : rom_sysbios.obj (.text:ti_sysbios_family_arm_m3_Hwi_setFunc__E)
                  00008778    00000004     tirtosport.aem3 : HwiP_tirtos.oem3 (.text:HwiP_disable)
                  0000877c    00000004     drivers_cc13xxware.aem3 : List.oem3 (.text:List_head)
                  00008780    00000004                             : List.oem3 (.text:List_next)
                  00008784    00000004     rf_singleMode_cc13xxware.aem3 : RFCC26XX_singleMode.oem3 (.text:Q_peek)
                  00008788    00000004     drivers_cc13xxware.aem3 : PowerCC26XX.oem3 (.text:nopResourceHandler)
                  0000878c    00000004     rom_sysbios.aem3 : rom_sysbios.obj (.text:ti_sysbios_family_arm_cc26xx_Timer_getCount64__E)
                  00008790    00000004                      : rom_sysbios.obj (.text:xdc_runtime_SysCallback_defaultReady)
                  00008794    00000004                      : rom_sysbios.obj (.text:xdc_runtime_System_snprintf_va__F)
                  00008798    00000008     (.tramp.xdc_runtime_Startup_startMods__I.1)
                  000087a0    00000008     (.tramp.ti_sysbios_knl_Clock_logTick__E.1)
                  000087a8    00000008     (.tramp.ti_sysbios_knl_Task_Params__init__S.1)
                  000087b0    00000008     (.tramp.ti_sysbios_BIOS_RtsGateProxy_leave__E.1)
                  000087b8    00000008     (.tramp.ti_sysbios_BIOS_RtsGateProxy_enter__E.1)
                  000087c0    00000008     (.tramp.ti_sysbios_knl_Task_startup__E.1)
                  000087c8    00000008     (.tramp.ti_sysbios_knl_Swi_startup__E.1)
                  000087d0    00000008     (.tramp.ti_sysbios_hal_Hwi_startup__E.1)
                  000087d8    00000008     (.tramp.ti_sysbios_family_arm_cc26xx_Timer_startup__E.1)
                  000087e0    00000008     (.tramp.xdc_runtime_System_atexit__E.1)
                  000087e8    00000008     (.tramp.ti_sysbios_BIOS_setThreadType__E.1)
                  000087f0    00000008     (.tramp.xdc_runtime_System_exit__E.1)
                  000087f8    00000008     (.tramp.ti_sysbios_knl_Task_construct.1)
                  00008800    00000008     (.tramp.ti_sysbios_knl_Clock_destruct.1)
                  00008808    00000008     (.tramp.ti_sysbios_knl_Semaphore_destruct.1)
                  00008810    00000008     (.tramp.ti_sysbios_knl_Swi_destruct.1)
                  00008818    00000008     (.tramp.ti_sysbios_family_arm_m3_Hwi_destruct.1)
                  00008820    00000008     (.tramp.ti_sysbios_knl_Clock_scheduleNextTick__E.1)
                  00008828    00000008     (.tramp.ti_sysbios_knl_Clock_walkQueueDynamic__E.1)
                  00008830    00000008     (.tramp.ti_sysbios_knl_Clock_TimerProxy_getCurrentTick__E.1)
                  00008838    00000008     (.tramp.ti_sysbios_family_arm_m3_Hwi_enableInterrupt__E.1)
                  00008840    00000008     (.tramp.ti_sysbios_BIOS_start__E.1)
                  00008848    00000008     (.tramp.ti_sysbios_BIOS_getCpuFreq__E.1)
                  00008850    00000008     (.tramp.ti_sysbios_knl_Task_sleep__E.1)
                  00008858    00000008     (.tramp.ti_sysbios_knl_Swi_post__E.1)
                  00008860    00000008     (.tramp.ti_sysbios_knl_Semaphore_post__E.1)
                  00008868    00000008     (.tramp.ti_sysbios_knl_Clock_construct.1)
                  00008870    00000008     (.tramp.ti_sysbios_knl_Clock_Params__init__S.1)
                  00008878    00000008     (.tramp.xdc_runtime_System_abortSpin__E.1)
                  00008880    00000008     (.tramp.ti_sysbios_knl_Swi_construct.1)
                  00008888    00000008     (.tramp.ti_sysbios_knl_Swi_Params__init__S.1)
                  00008890    00000008     (.tramp.ti_sysbios_family_arm_m3_Hwi_construct.1)
                  00008898    00000008     (.tramp.ti_sysbios_family_arm_m3_Hwi_Params__init__S.1)
                  000088a0    00000008     (.tramp.ti_sysbios_knl_Semaphore_construct.1)
                  000088a8    00000008     (.tramp.ti_sysbios_knl_Semaphore_Params__init__S.1)
                  000088b0    00000008     (.tramp.ti_sysbios_knl_Task_restore__E.1)
                  000088b8    00000008     (.tramp.ti_sysbios_knl_Swi_restore__E.1)
                  000088c0    00000008     (.tramp.ti_sysbios_knl_Swi_disable__E.1)
                  000088c8    00000008     (.tramp.ti_sysbios_knl_Task_disable__E.1)
                  000088d0    00000008     (.tramp.ti_sysbios_knl_Semaphore_pend__E.1)
                  000088d8    00000008     (.tramp.xdc_runtime_System_abort__E.1)
                  000088e0    00000008     (.tramp.ti_sysbios_knl_Clock_start__E.1)
                  000088e8    00000008     (.tramp.ti_sysbios_knl_Clock_setTimeout__E.1)
                  000088f0    00000008     (.tramp.ti_sysbios_family_arm_m3_Hwi_restoreFxn__E.1)
                  000088f8    00000008     (.tramp.ti_sysbios_family_arm_m3_Hwi_disableFxn__E.1)

.const     0    00008900    000010b0     
                  00008900    000006b4     smartrf_settings.obj (.const:patchGenfskRfe)
                  00008fb4    000002f8     grlib.aem3 : fontfixed6x8.oem3 (.const:.string:g_pucFontFixed6x8Data)
                  000092ac    0000028c     smartrf_settings.obj (.const:patchImageGenfsk)
                  00009538    000000c8     grlib.aem3 : fontfixed6x8.oem3 (.const:g_sFontFixed6x8)
                  00009600    00000054     drivers_cc13xxware.aem3 : SPICC26XXDMA.oem3 (.const)
                  00009654    0000004c                             : PowerCC26XX.oem3 (.const:resourceDB)
                  000096a0    00000048     rfExamples_pem3.oem3 (.const:.string)
                  000096e8    00000040     drivers_cc13xxware.aem3 : UARTCC26XX.oem3 (.const)
                  00009728    00000038     CC1310_LAUNCHXL.obj (.const:spiCC26XXDMAHWAttrs)
                  00009760    0000002c     CC1310_LAUNCHXL.obj (.const:BoardGpioInitTable)
                  0000978c    00000028     drivers_cc13xxware.aem3 : UARTCC26XX.oem3 (.const:UARTCC26XX_fxnTable)
                  000097b4    00000024     CC1310_LAUNCHXL.obj (.const:Display_config)
                  000097d8    00000024     CC1310_LAUNCHXL.obj (.const:SPI_config)
                  000097fc    00000024     drivers_cc13xxware.aem3 : UART.oem3 (.const:UART_defaultParams)
                  00009820    00000024     display.aem3 : DisplaySharp.oem3 (.const)
                  00009844    00000024     rfExamples_pem3.oem3 (.const:xdc_runtime_Startup_sfxnTab__A)
                  00009868    00000020     drivers_cc13xxware.aem3 : SPI.oem3 (.const)
                  00009888    00000020     lcd.aem3 : SharpGrLib.oem3 (.const)
                  000098a8    00000020     CC1310_LAUNCHXL.obj (.const:uartCC26XXHWAttrs)
                  000098c8    0000001c     display.aem3 : DisplayUart.oem3 (.const)
                  000098e4    00000018     CC1310_LAUNCHXL.obj (.const:UART_config)
                  000098fc    00000014     CC1310_LAUNCHXL.obj (.const:displayUartHWAttrs)
                  00009910    00000014     rf_singleMode_cc13xxware.aem3 : RFCC26XX_singleMode.oem3 (.const)
                  00009924    00000012     rfExamples_pem3.oem3 (.const:xdc_runtime_Startup_sfxnRts__A)
                  00009936    00000010     lcd.aem3 : SharpGrLib.oem3 (.const:.string)
                  00009946    00000001     display.aem3 : Display.oem3 (.const)
                  00009947    00000001     rfExamples_pem3.oem3 (.const:xdc_runtime_Text_charTab__A)
                  00009948    00000010     CC1310_LAUNCHXL.obj (.const:PowerCC26XX_config)
                  00009958    00000010     CC1310_LAUNCHXL.obj (.const:UDMACC26XX_config)
                  00009968    00000010     CC1310_LAUNCHXL.obj (.const:displaySharpHWattrs)
                  00009978    0000000c     rfExamples_pem3.oem3 (.const:xdc_runtime_Startup_firstFxns__A)
                  00009984    00000008     CC1310_LAUNCHXL.obj (.const:PINCC26XX_hwAttrs)
                  0000998c    00000008     CC1310_LAUNCHXL.obj (.const:udmaHWAttrs)
                  00009994    00000004     CC1310_LAUNCHXL.obj (.const:RFCC26XX_hwAttrs)
                  00009998    00000004     rfExamples_pem3.oem3 (.const:ti_sysbios_knl_Clock_tickPeriod__C)
                  0000999c    00000004     rfExamples_pem3.oem3 (.const:ti_sysbios_knl_Clock_triggerClock__C)
                  000099a0    00000004     rfExamples_pem3.oem3 (.const:ti_sysbios_knl_Idle_funcList__A)
                  000099a4    00000004     rfExamples_pem3.oem3 (.const:xdc_runtime_SysCallback_putchFxn__C)
                  000099a8    00000004     rfExamples_pem3.oem3 (.const:xdc_runtime_SysCallback_readyFxn__C)
                  000099ac    00000004     rfExamples_pem3.oem3 (.const:xdc_runtime_System_extendFxn__C)

.cinit     0    00000040    00000320     
                  00000040    000001aa     (.cinit..data.load) [load image, compression = lzss]
                  000001ea    00000028     (.cinit..data:ti_sysbios_family_arm_m3_Hwi_Module__state__V.load) [load image, compression = lzss]
                  00000212    00000021     (.cinit..data:ti_sysbios_knl_Task_Module__state__V.load) [load image, compression = lzss]
                  00000233    0000001f     (.cinit..data:ti_sysbios_BIOS_Module__state__V.load) [load image, compression = lzss]
                  00000252    0000001d     (.cinit..data:ti_sysbios_knl_Clock_Module__state__V.load) [load image, compression = lzss]
                  0000026f    00000010     (.cinit..data:ti_sysbios_knl_Swi_Module__state__V.load) [load image, compression = lzss]
                  0000027f    00000001     --HOLE-- [fill = 0]
                  00000280    0000000c     (__TI_handler_table)
                  0000028c    0000000b     (.cinit..data:ti_sysbios_family_arm_cc26xx_Timer_Module__state__V.load) [load image, compression = lzss]
                  00000297    00000001     --HOLE-- [fill = 0]
                  00000298    00000008     (.cinit..TI.bound:dmaSpi0RxControlTableEntry.load) [load image, compression = zero_init]
                  000002a0    00000008     (.cinit..TI.bound:dmaSpi0TxControlTableEntry.load) [load image, compression = zero_init]
                  000002a8    00000008     (.cinit..TI.bound:dmaSpi1RxControlTableEntry.load) [load image, compression = zero_init]
                  000002b0    00000008     (.cinit..TI.bound:dmaSpi1TxControlTableEntry.load) [load image, compression = zero_init]
                  000002b8    00000008     (.cinit..bss.load) [load image, compression = zero_init]
                  000002c0    00000008     (.cinit..data:xdc_runtime_Memory_Module__state__V.load) [load image, compression = lzss]
                  000002c8    00000007     (.cinit..data:ti_sysbios_family_arm_cc26xx_TimestampProvider_Module__state__V.load) [load image, compression = lzss]
                  000002cf    00000007     (.cinit..data:xdc_runtime_Startup_Module__state__V.load) [load image, compression = lzss]
                  000002d6    00000007     (.cinit..data:xdc_runtime_System_Module__state__V.load) [load image, compression = lzss]
                  000002dd    00000003     --HOLE-- [fill = 0]
                  000002e0    00000080     (__TI_cinit_table)

.init_array 
*          0    00000000    00000000     UNINITIALIZED

.ccfg      0    0001ffa8    00000058     
                  0001ffa8    00000058     ccfg.obj (.ccfg:retain)

.const:ti_sysbios_knl_Task_Object__PARAMS__C 
*          0    00001000    0000003c     
                  00001000    0000003c     rfExamples_pem3.oem3 (.const:ti_sysbios_knl_Task_Object__PARAMS__C)

.const:ti_sysbios_knl_Mailbox_Object__PARAMS__C 
*          0    0000103c    00000034     
                  0000103c    00000034     rfExamples_pem3.oem3 (.const:ti_sysbios_knl_Mailbox_Object__PARAMS__C)

.const:ti_sysbios_family_arm_m3_Hwi_Object__PARAMS__C 
*          0    00001070    00000030     
                  00001070    00000030     rfExamples_pem3.oem3 (.const:ti_sysbios_family_arm_m3_Hwi_Object__PARAMS__C)

.const:ti_sysbios_hal_Hwi_Object__PARAMS__C 
*          0    000010a0    0000002c     
                  000010a0    0000002c     rfExamples_pem3.oem3 (.const:ti_sysbios_hal_Hwi_Object__PARAMS__C)

.const:ti_sysbios_heaps_HeapMem_Module__FXNS__C 
*          0    000010cc    00000028     
                  000010cc    00000028     rfExamples_pem3.oem3 (.const:ti_sysbios_heaps_HeapMem_Module__FXNS__C)

.const:ti_sysbios_knl_Swi_Object__PARAMS__C 
*          0    000010f4    00000028     
                  000010f4    00000028     rfExamples_pem3.oem3 (.const:ti_sysbios_knl_Swi_Object__PARAMS__C)

.const:ti_sysbios_gates_GateHwi_Module__FXNS__C 
*          0    0000111c    00000024     
                  0000111c    00000024     rfExamples_pem3.oem3 (.const:ti_sysbios_gates_GateHwi_Module__FXNS__C)

.const:ti_sysbios_gates_GateMutex_Module__FXNS__C 
*          0    00001140    00000024     
                  00001140    00000024     rfExamples_pem3.oem3 (.const:ti_sysbios_gates_GateMutex_Module__FXNS__C)

.const:ti_sysbios_heaps_HeapMem_Object__PARAMS__C 
*          0    00001164    00000024     
                  00001164    00000024     rfExamples_pem3.oem3 (.const:ti_sysbios_heaps_HeapMem_Object__PARAMS__C)

.const:ti_sysbios_knl_Clock_Object__PARAMS__C 
*          0    00001188    00000024     
                  00001188    00000024     rfExamples_pem3.oem3 (.const:ti_sysbios_knl_Clock_Object__PARAMS__C)

.const:ti_sysbios_knl_Semaphore_Object__PARAMS__C 
*          0    000011ac    00000024     
                  000011ac    00000024     rfExamples_pem3.oem3 (.const:ti_sysbios_knl_Semaphore_Object__PARAMS__C)

.const:ti_sysbios_family_arm_m3_Hwi_Object__DESC__C 
*          0    000011d0    00000020     
                  000011d0    00000020     rfExamples_pem3.oem3 (.const:ti_sysbios_family_arm_m3_Hwi_Object__DESC__C)

.const:ti_sysbios_gates_GateHwi_Object__DESC__C 
*          0    000011f0    00000020     
                  000011f0    00000020     rfExamples_pem3.oem3 (.const:ti_sysbios_gates_GateHwi_Object__DESC__C)

.const:ti_sysbios_gates_GateMutex_Object__DESC__C 
*          0    00001210    00000020     
                  00001210    00000020     rfExamples_pem3.oem3 (.const:ti_sysbios_gates_GateMutex_Object__DESC__C)

.const:ti_sysbios_hal_Hwi_Object__DESC__C 
*          0    00001230    00000020     
                  00001230    00000020     rfExamples_pem3.oem3 (.const:ti_sysbios_hal_Hwi_Object__DESC__C)

.const:ti_sysbios_heaps_HeapMem_Object__DESC__C 
*          0    00001250    00000020     
                  00001250    00000020     rfExamples_pem3.oem3 (.const:ti_sysbios_heaps_HeapMem_Object__DESC__C)

.const:ti_sysbios_knl_Clock_Object__DESC__C 
*          0    00001270    00000020     
                  00001270    00000020     rfExamples_pem3.oem3 (.const:ti_sysbios_knl_Clock_Object__DESC__C)

.const:ti_sysbios_knl_Mailbox_Object__DESC__C 
*          0    00001290    00000020     
                  00001290    00000020     rfExamples_pem3.oem3 (.const:ti_sysbios_knl_Mailbox_Object__DESC__C)

.const:ti_sysbios_knl_Queue_Object__DESC__C 
*          0    000012b0    00000020     
                  000012b0    00000020     rfExamples_pem3.oem3 (.const:ti_sysbios_knl_Queue_Object__DESC__C)

.const:ti_sysbios_knl_Semaphore_Object__DESC__C 
*          0    000012d0    00000020     
                  000012d0    00000020     rfExamples_pem3.oem3 (.const:ti_sysbios_knl_Semaphore_Object__DESC__C)

.const:ti_sysbios_knl_Swi_Object__DESC__C 
*          0    000012f0    00000020     
                  000012f0    00000020     rfExamples_pem3.oem3 (.const:ti_sysbios_knl_Swi_Object__DESC__C)

.const:ti_sysbios_knl_Task_Object__DESC__C 
*          0    00001310    00000020     
                  00001310    00000020     rfExamples_pem3.oem3 (.const:ti_sysbios_knl_Task_Object__DESC__C)

.const:ti_sysbios_gates_GateHwi_Object__PARAMS__C 
*          0    00001330    00000018     
                  00001330    00000018     rfExamples_pem3.oem3 (.const:ti_sysbios_gates_GateHwi_Object__PARAMS__C)

.const:ti_sysbios_gates_GateMutex_Object__PARAMS__C 
*          0    00001348    00000018     
                  00001348    00000018     rfExamples_pem3.oem3 (.const:ti_sysbios_gates_GateMutex_Object__PARAMS__C)

.const:ti_sysbios_knl_Queue_Object__PARAMS__C 
*          0    00001360    00000018     
                  00001360    00000018     rfExamples_pem3.oem3 (.const:ti_sysbios_knl_Queue_Object__PARAMS__C)

.const:ti_sysbios_knl_Idle_funcList__C 
*          0    00001378    00000008     
                  00001378    00000008     rfExamples_pem3.oem3 (.const:ti_sysbios_knl_Idle_funcList__C)

.const:ti_sysbios_family_arm_cc26xx_Timer_startupNeeded__C 
*          0    00001384    00000004     
                  00001384    00000004     rfExamples_pem3.oem3 (.const:ti_sysbios_family_arm_cc26xx_Timer_startupNeeded__C)

.const:ti_sysbios_family_arm_m3_Hwi_E_alreadyDefined__C 
*          0    00001388    00000004     
                  00001388    00000004     rfExamples_pem3.oem3 (.const:ti_sysbios_family_arm_m3_Hwi_E_alreadyDefined__C)

.const:ti_sysbios_family_arm_m3_Hwi_E_hwiLimitExceeded__C 
*          0    0000138c    00000004     
                  0000138c    00000004     rfExamples_pem3.oem3 (.const:ti_sysbios_family_arm_m3_Hwi_E_hwiLimitExceeded__C)

.const:ti_sysbios_family_arm_m3_Hwi_NUM_INTERRUPTS__C 
*          0    00001390    00000004     
                  00001390    00000004     rfExamples_pem3.oem3 (.const:ti_sysbios_family_arm_m3_Hwi_NUM_INTERRUPTS__C)

.const:ti_sysbios_family_arm_m3_Hwi_Object__count__C 
*          0    00001394    00000004     
                  00001394    00000004     rfExamples_pem3.oem3 (.const:ti_sysbios_family_arm_m3_Hwi_Object__count__C)

.const:ti_sysbios_family_arm_m3_Hwi_Object__table__C 
*          0    00001398    00000004     
                  00001398    00000004     rfExamples_pem3.oem3 (.const:ti_sysbios_family_arm_m3_Hwi_Object__table__C)

.const:ti_sysbios_family_arm_m3_Hwi_ccr__C 
*          0    0000139c    00000004     
                  0000139c    00000004     rfExamples_pem3.oem3 (.const:ti_sysbios_family_arm_m3_Hwi_ccr__C)

.const:ti_sysbios_family_arm_m3_Hwi_excHandlerFunc__C 
*          0    000013a0    00000004     
                  000013a0    00000004     rfExamples_pem3.oem3 (.const:ti_sysbios_family_arm_m3_Hwi_excHandlerFunc__C)

.const:ti_sysbios_family_arm_m3_Hwi_nullIsrFunc__C 
*          0    000013a4    00000004     
                  000013a4    00000004     rfExamples_pem3.oem3 (.const:ti_sysbios_family_arm_m3_Hwi_nullIsrFunc__C)

.const:ti_sysbios_family_arm_m3_Hwi_numSparseInterrupts__C 
*          0    000013a8    00000004     
                  000013a8    00000004     rfExamples_pem3.oem3 (.const:ti_sysbios_family_arm_m3_Hwi_numSparseInterrupts__C)

.const:ti_sysbios_family_arm_m3_Hwi_priGroup__C 
*          0    000013ac    00000004     
                  000013ac    00000004     rfExamples_pem3.oem3 (.const:ti_sysbios_family_arm_m3_Hwi_priGroup__C)

.const:ti_sysbios_family_arm_m3_TaskSupport_stackAlignment__C 
*          0    000013b0    00000004     
                  000013b0    00000004     rfExamples_pem3.oem3 (.const:ti_sysbios_family_arm_m3_TaskSupport_stackAlignment__C)

.const:ti_sysbios_heaps_HeapMem_E_memory__C 
*          0    000013b4    00000004     
                  000013b4    00000004     rfExamples_pem3.oem3 (.const:ti_sysbios_heaps_HeapMem_E_memory__C)

.const:ti_sysbios_heaps_HeapMem_Module__gateObj__C 
*          0    000013b8    00000004     
                  000013b8    00000004     rfExamples_pem3.oem3 (.const:ti_sysbios_heaps_HeapMem_Module__gateObj__C)

.const:ti_sysbios_heaps_HeapMem_Object__count__C 
*          0    000013bc    00000004     
                  000013bc    00000004     rfExamples_pem3.oem3 (.const:ti_sysbios_heaps_HeapMem_Object__count__C)

.const:ti_sysbios_heaps_HeapMem_Object__table__C 
*          0    000013c0    00000004     
                  000013c0    00000004     rfExamples_pem3.oem3 (.const:ti_sysbios_heaps_HeapMem_Object__table__C)

.const:ti_sysbios_heaps_HeapMem_reqAlign__C 
*          0    000013c4    00000004     
                  000013c4    00000004     rfExamples_pem3.oem3 (.const:ti_sysbios_heaps_HeapMem_reqAlign__C)

.const:ti_sysbios_knl_Clock_serviceMargin__C 
*          0    000013c8    00000004     
                  000013c8    00000004     rfExamples_pem3.oem3 (.const:ti_sysbios_knl_Clock_serviceMargin__C)

.const:ti_sysbios_knl_Mailbox_Object__count__C 
*          0    000013cc    00000004     
                  000013cc    00000004     rfExamples_pem3.oem3 (.const:ti_sysbios_knl_Mailbox_Object__count__C)

.const:ti_sysbios_knl_Mailbox_Object__table__C 
*          0    000013d0    00000004     
                  000013d0    00000004     rfExamples_pem3.oem3 (.const:ti_sysbios_knl_Mailbox_Object__table__C)

.const:ti_sysbios_knl_Mailbox_maxTypeAlign__C 
*          0    000013d4    00000004     
                  000013d4    00000004     rfExamples_pem3.oem3 (.const:ti_sysbios_knl_Mailbox_maxTypeAlign__C)

.const:ti_sysbios_knl_Queue_Object__count__C 
*          0    000013d8    00000004     
                  000013d8    00000004     rfExamples_pem3.oem3 (.const:ti_sysbios_knl_Queue_Object__count__C)

.const:ti_sysbios_knl_Queue_Object__table__C 
*          0    000013dc    00000004     
                  000013dc    00000004     rfExamples_pem3.oem3 (.const:ti_sysbios_knl_Queue_Object__table__C)

.const:ti_sysbios_knl_Swi_Object__count__C 
*          0    000013e0    00000004     
                  000013e0    00000004     rfExamples_pem3.oem3 (.const:ti_sysbios_knl_Swi_Object__count__C)

.const:ti_sysbios_knl_Swi_Object__table__C 
*          0    000013e4    00000004     
                  000013e4    00000004     rfExamples_pem3.oem3 (.const:ti_sysbios_knl_Swi_Object__table__C)

.const:ti_sysbios_knl_Swi_numPriorities__C 
*          0    000013e8    00000004     
                  000013e8    00000004     rfExamples_pem3.oem3 (.const:ti_sysbios_knl_Swi_numPriorities__C)

.const:ti_sysbios_knl_Task_Object__count__C 
*          0    000013ec    00000004     
                  000013ec    00000004     rfExamples_pem3.oem3 (.const:ti_sysbios_knl_Task_Object__count__C)

.const:ti_sysbios_knl_Task_Object__table__C 
*          0    000013f0    00000004     
                  000013f0    00000004     rfExamples_pem3.oem3 (.const:ti_sysbios_knl_Task_Object__table__C)

.const:ti_sysbios_knl_Task_allBlockedFunc__C 
*          0    000013f4    00000004     
                  000013f4    00000004     rfExamples_pem3.oem3 (.const:ti_sysbios_knl_Task_allBlockedFunc__C)

.const:ti_sysbios_knl_Task_defaultStackHeap__C 
*          0    000013f8    00000004     
                  000013f8    00000004     rfExamples_pem3.oem3 (.const:ti_sysbios_knl_Task_defaultStackHeap__C)

.const:ti_sysbios_knl_Task_defaultStackSize__C 
*          0    000013fc    00000004     
                  000013fc    00000004     rfExamples_pem3.oem3 (.const:ti_sysbios_knl_Task_defaultStackSize__C)

.const:ti_sysbios_knl_Task_numConstructedTasks__C 
*          0    00001400    00000004     
                  00001400    00000004     rfExamples_pem3.oem3 (.const:ti_sysbios_knl_Task_numConstructedTasks__C)

.const:ti_sysbios_family_arm_cc26xx_Timer_Module__id__C 
*          0    00001406    00000002     
                  00001406    00000002     rfExamples_pem3.oem3 (.const:ti_sysbios_family_arm_cc26xx_Timer_Module__id__C)

.const:ti_sysbios_family_arm_cc26xx_TimestampProvider_useClockTimer__C 
*          0    00001408    00000002     
                  00001408    00000002     rfExamples_pem3.oem3 (.const:ti_sysbios_family_arm_cc26xx_TimestampProvider_useClockTimer__C)

.const:ti_sysbios_family_arm_m3_Hwi_Module__id__C 
*          0    0000140a    00000002     
                  0000140a    00000002     rfExamples_pem3.oem3 (.const:ti_sysbios_family_arm_m3_Hwi_Module__id__C)

.const:ti_sysbios_gates_GateHwi_Module__id__C 
*          0    0000140c    00000002     
                  0000140c    00000002     rfExamples_pem3.oem3 (.const:ti_sysbios_gates_GateHwi_Module__id__C)

.const:ti_sysbios_gates_GateMutex_Module__id__C 
*          0    0000140e    00000002     
                  0000140e    00000002     rfExamples_pem3.oem3 (.const:ti_sysbios_gates_GateMutex_Module__id__C)

.const:ti_sysbios_heaps_HeapMem_Module__id__C 
*          0    00001410    00000002     
                  00001410    00000002     rfExamples_pem3.oem3 (.const:ti_sysbios_heaps_HeapMem_Module__id__C)

.const:ti_sysbios_knl_Task_initStackFlag__C 
*          0    00001412    00000002     
                  00001412    00000002     rfExamples_pem3.oem3 (.const:ti_sysbios_knl_Task_initStackFlag__C)

.const:ti_sysbios_knl_Clock_tickMode__C 
*          0    00001414    00000001     
                  00001414    00000001     rfExamples_pem3.oem3 (.const:ti_sysbios_knl_Clock_tickMode__C)

.const:xdc_runtime_Startup_firstFxns__C 
*          0    00001418    00000008     
                  00001418    00000008     rfExamples_pem3.oem3 (.const:xdc_runtime_Startup_firstFxns__C)

.const:xdc_runtime_Startup_lastFxns__C 
*          0    00001420    00000008     
                  00001420    00000008     rfExamples_pem3.oem3 (.const:xdc_runtime_Startup_lastFxns__C)

.const:xdc_runtime_Assert_E_assertFailed__C 
*          0    00001428    00000004     
                  00001428    00000004     rfExamples_pem3.oem3 (.const:xdc_runtime_Assert_E_assertFailed__C)

.const:xdc_runtime_Error_E_memory__C 
*          0    0000142c    00000004     
                  0000142c    00000004     rfExamples_pem3.oem3 (.const:xdc_runtime_Error_E_memory__C)

.const:xdc_runtime_Error_policyFxn__C 
*          0    00001430    00000004     
                  00001430    00000004     rfExamples_pem3.oem3 (.const:xdc_runtime_Error_policyFxn__C)

.const:xdc_runtime_IGateProvider_Interface__BASE__C 
*          0    00001434    00000004     
                  00001434    00000004     rfExamples_pem3.oem3 (.const:xdc_runtime_IGateProvider_Interface__BASE__C)

.const:xdc_runtime_IHeap_Interface__BASE__C 
*          0    00001438    00000004     
                  00001438    00000004     rfExamples_pem3.oem3 (.const:xdc_runtime_IHeap_Interface__BASE__C)

.const:xdc_runtime_IModule_Interface__BASE__C 
*          0    0000143c    00000004     
                  0000143c    00000004     rfExamples_pem3.oem3 (.const:xdc_runtime_IModule_Interface__BASE__C)

.const:xdc_runtime_Main_Module__diagsEnabled__C 
*          0    00001440    00000004     
                  00001440    00000004     rfExamples_pem3.oem3 (.const:xdc_runtime_Main_Module__diagsEnabled__C)

.const:xdc_runtime_Main_Module__diagsIncluded__C 
*          0    00001444    00000004     
                  00001444    00000004     rfExamples_pem3.oem3 (.const:xdc_runtime_Main_Module__diagsIncluded__C)

.const:xdc_runtime_Main_Module__diagsMask__C 
*          0    00001448    00000004     
                  00001448    00000004     rfExamples_pem3.oem3 (.const:xdc_runtime_Main_Module__diagsMask__C)

.const:xdc_runtime_Memory_defaultHeapInstance__C 
*          0    0000144c    00000004     
                  0000144c    00000004     rfExamples_pem3.oem3 (.const:xdc_runtime_Memory_defaultHeapInstance__C)

.const:xdc_runtime_Startup_execImpl__C 
*          0    00001450    00000004     
                  00001450    00000004     rfExamples_pem3.oem3 (.const:xdc_runtime_Startup_execImpl__C)

.const:xdc_runtime_Startup_maxPasses__C 
*          0    00001454    00000004     
                  00001454    00000004     rfExamples_pem3.oem3 (.const:xdc_runtime_Startup_maxPasses__C)

.const:xdc_runtime_Startup_sfxnRts__C 
*          0    00001458    00000004     
                  00001458    00000004     rfExamples_pem3.oem3 (.const:xdc_runtime_Startup_sfxnRts__C)

.const:xdc_runtime_Startup_sfxnTab__C 
*          0    0000145c    00000004     
                  0000145c    00000004     rfExamples_pem3.oem3 (.const:xdc_runtime_Startup_sfxnTab__C)

.const:xdc_runtime_Startup_startModsFxn__C 
*          0    00001460    00000004     
                  00001460    00000004     rfExamples_pem3.oem3 (.const:xdc_runtime_Startup_startModsFxn__C)

.const:xdc_runtime_SysCallback_abortFxn__C 
*          0    00001464    00000004     
                  00001464    00000004     rfExamples_pem3.oem3 (.const:xdc_runtime_SysCallback_abortFxn__C)

.const:xdc_runtime_SysCallback_exitFxn__C 
*          0    00001468    00000004     
                  00001468    00000004     rfExamples_pem3.oem3 (.const:xdc_runtime_SysCallback_exitFxn__C)

.const:xdc_runtime_System_abortFxn__C 
*          0    0000146c    00000004     
                  0000146c    00000004     rfExamples_pem3.oem3 (.const:xdc_runtime_System_abortFxn__C)

.const:xdc_runtime_System_exitFxn__C 
*          0    00001470    00000004     
                  00001470    00000004     rfExamples_pem3.oem3 (.const:xdc_runtime_System_exitFxn__C)

.const:xdc_runtime_System_maxAtexitHandlers__C 
*          0    00001474    00000004     
                  00001474    00000004     rfExamples_pem3.oem3 (.const:xdc_runtime_System_maxAtexitHandlers__C)

.const:xdc_runtime_Text_charTab__C 
*          0    00001478    00000004     
                  00001478    00000004     rfExamples_pem3.oem3 (.const:xdc_runtime_Text_charTab__C)

.const:xdc_runtime_Text_nameEmpty__C 
*          0    0000147c    00000004     
                  0000147c    00000004     rfExamples_pem3.oem3 (.const:xdc_runtime_Text_nameEmpty__C)

.const:xdc_runtime_Text_nameStatic__C 
*          0    00001480    00000004     
                  00001480    00000004     rfExamples_pem3.oem3 (.const:xdc_runtime_Text_nameStatic__C)

.const:xdc_runtime_Text_nameUnknown__C 
*          0    00001484    00000004     
                  00001484    00000004     rfExamples_pem3.oem3 (.const:xdc_runtime_Text_nameUnknown__C)

.const:xdc_runtime_Main_Module__id__C 
*          0    00001488    00000002     
                  00001488    00000002     rfExamples_pem3.oem3 (.const:xdc_runtime_Main_Module__id__C)

.const:xdc_runtime_Memory_Module__id__C 
*          0    0000148a    00000002     
                  0000148a    00000002     rfExamples_pem3.oem3 (.const:xdc_runtime_Memory_Module__id__C)

.const:xdc_runtime_Text_charCnt__C 
*          0    0000148c    00000002     
                  0000148c    00000002     rfExamples_pem3.oem3 (.const:xdc_runtime_Text_charCnt__C)

.const:xdc_runtime_Text_isLoaded__C 
*          0    0000148e    00000002     
                  0000148e    00000002     rfExamples_pem3.oem3 (.const:xdc_runtime_Text_isLoaded__C)

.const:ti_sysbios_rom_ROM_AONRTCChannelEnable 
*          0    00001494    00000004     
                  00001494    00000004     rfExamples_pem3.oem3 (.const:ti_sysbios_rom_ROM_AONRTCChannelEnable)

.const:ti_sysbios_rom_ROM_AONRTCCompareValueSet 
*          0    00001498    00000004     
                  00001498    00000004     rfExamples_pem3.oem3 (.const:ti_sysbios_rom_ROM_AONRTCCompareValueSet)

.const:ti_sysbios_rom_ROM_AONRTCCurrentCompareValueGet 
*          0    0000149c    00000004     
                  0000149c    00000004     rfExamples_pem3.oem3 (.const:ti_sysbios_rom_ROM_AONRTCCurrentCompareValueGet)

.const:ti_sysbios_rom_ROM_AONRTCEventClear 
*          0    000014a0    00000004     
                  000014a0    00000004     rfExamples_pem3.oem3 (.const:ti_sysbios_rom_ROM_AONRTCEventClear)

.const:ti_sysbios_rom_ROM_ti_sysbios_family_arm_cc26xx_Timer_getCount64__E 
*          0    000014a4    00000004     
                  000014a4    00000004     rfExamples_pem3.oem3 (.const:ti_sysbios_rom_ROM_ti_sysbios_family_arm_cc26xx_Timer_getCount64__E)

.const:ti_sysbios_rom_ROM_ti_sysbios_family_arm_cc26xx_Timer_getCurrentTick__E 
*          0    000014a8    00000004     
                  000014a8    00000004     rfExamples_pem3.oem3 (.const:ti_sysbios_rom_ROM_ti_sysbios_family_arm_cc26xx_Timer_getCurrentTick__E)

.const:ti_sysbios_rom_ROM_ti_sysbios_family_arm_cc26xx_Timer_getMaxTicks__E 
*          0    000014ac    00000004     
                  000014ac    00000004     rfExamples_pem3.oem3 (.const:ti_sysbios_rom_ROM_ti_sysbios_family_arm_cc26xx_Timer_getMaxTicks__E)

.const:ti_sysbios_rom_ROM_ti_sysbios_family_arm_cc26xx_Timer_setNextTick__E 
*          0    000014b4    00000004     
                  000014b4    00000004     rfExamples_pem3.oem3 (.const:ti_sysbios_rom_ROM_ti_sysbios_family_arm_cc26xx_Timer_setNextTick__E)

.const:ti_sysbios_rom_ROM_ti_sysbios_family_arm_cc26xx_Timer_setThreshold__I 
*          0    000014b8    00000004     
                  000014b8    00000004     rfExamples_pem3.oem3 (.const:ti_sysbios_rom_ROM_ti_sysbios_family_arm_cc26xx_Timer_setThreshold__I)

.const:ti_sysbios_rom_ROM_ti_sysbios_family_arm_cc26xx_Timer_start__E 
*          0    000014bc    00000004     
                  000014bc    00000004     rfExamples_pem3.oem3 (.const:ti_sysbios_rom_ROM_ti_sysbios_family_arm_cc26xx_Timer_start__E)

.const:ti_sysbios_rom_ROM_ti_sysbios_family_arm_cc26xx_TimestampProvider_get32__E 
*          0    000014c0    00000004     
                  000014c0    00000004     rfExamples_pem3.oem3 (.const:ti_sysbios_rom_ROM_ti_sysbios_family_arm_cc26xx_TimestampProvider_get32__E)

.const:ti_sysbios_rom_ROM_xdc_runtime_Startup_getState__I 
*          0    000014c4    00000004     
                  000014c4    00000004     rfExamples_pem3.oem3 (.const:ti_sysbios_rom_ROM_xdc_runtime_Startup_getState__I)

.const:ti_sysbios_rom_ROM_xdc_runtime_System_SupportProxy_abort__E 
*          0    000014c8    00000004     
                  000014c8    00000004     rfExamples_pem3.oem3 (.const:ti_sysbios_rom_ROM_xdc_runtime_System_SupportProxy_abort__E)

.const:ti_sysbios_rom_ROM_xdc_runtime_System_SupportProxy_exit__E 
*          0    000014cc    00000004     
                  000014cc    00000004     rfExamples_pem3.oem3 (.const:ti_sysbios_rom_ROM_xdc_runtime_System_SupportProxy_exit__E)

.const:ti_sysbios_knl_Clock_Module_State_clockQ__O 
*          0    000014d4    00000004     
                  000014d4    00000004     rfExamples_pem3.oem3 (.const:ti_sysbios_knl_Clock_Module_State_clockQ__O)

.const:ti_sysbios_knl_Mailbox_Instance_State_dataSem__O 
*          0    000014dc    00000004     
                  000014dc    00000004     rfExamples_pem3.oem3 (.const:ti_sysbios_knl_Mailbox_Instance_State_dataSem__O)

.const:ti_sysbios_knl_Mailbox_Instance_State_freeQue__O 
*          0    000014e0    00000004     
                  000014e0    00000004     rfExamples_pem3.oem3 (.const:ti_sysbios_knl_Mailbox_Instance_State_freeQue__O)

.const:ti_sysbios_knl_Mailbox_Instance_State_freeSem__O 
*          0    000014e4    00000004     
                  000014e4    00000004     rfExamples_pem3.oem3 (.const:ti_sysbios_knl_Mailbox_Instance_State_freeSem__O)

.const:ti_sysbios_knl_Semaphore_Instance_State_pendQ__O 
*          0    000014e8    00000004     
                  000014e8    00000004     rfExamples_pem3.oem3 (.const:ti_sysbios_knl_Semaphore_Instance_State_pendQ__O)

.data:ti_sysbios_knl_Task_Module__state__V 
*          0    20000100    00000044     UNINITIALIZED
                  20000100    00000044     rfExamples_pem3.oem3 (.data:ti_sysbios_knl_Task_Module__state__V)

.data:ti_sysbios_family_arm_m3_Hwi_Module__state__V 
*          0    20000144    00000034     UNINITIALIZED
                  20000144    00000034     rfExamples_pem3.oem3 (.data:ti_sysbios_family_arm_m3_Hwi_Module__state__V)

.data:ti_sysbios_BIOS_Module__state__V 
*          0    200001a4    00000024     UNINITIALIZED
                  200001a4    00000024     rfExamples_pem3.oem3 (.data:ti_sysbios_BIOS_Module__state__V)

.data:ti_sysbios_knl_Swi_Module__state__V 
*          0    200001c8    0000001c     UNINITIALIZED
                  200001c8    0000001c     rfExamples_pem3.oem3 (.data:ti_sysbios_knl_Swi_Module__state__V)

.data:ti_sysbios_family_arm_cc26xx_Timer_Module__state__V 
*          0    200001e4    00000008     UNINITIALIZED
                  200001e4    00000008     rfExamples_pem3.oem3 (.data:ti_sysbios_family_arm_cc26xx_Timer_Module__state__V)

.data:xdc_runtime_System_Module__state__V 
*          0    200001f8    00000008     UNINITIALIZED
                  200001f8    00000008     rfExamples_pem3.oem3 (.data:xdc_runtime_System_Module__state__V)

.TI.bound:dmaSpi0RxControlTableEntry 
*          0    20000430    00000010     UNINITIALIZED
                  20000430    00000010     drivers_cc13xxware.aem3 : SPICC26XXDMA.oem3 (.TI.bound:dmaSpi0RxControlTableEntry)

.TI.bound:dmaSpi1RxControlTableEntry 
*          0    20000500    00000010     UNINITIALIZED
                  20000500    00000010     drivers_cc13xxware.aem3 : SPICC26XXDMA.oem3 (.TI.bound:dmaSpi1RxControlTableEntry)

.bss       0    20000520    000018be     UNINITIALIZED
                  20000520    00000480     CC1310_LAUNCHXL.obj (.bss:sharpDisplayBuf)
                  200009a0    00000400     rfWakeOnRadioTx.obj (.bss:txTaskStack)
                  20000da0    00000400     (.common:ti_sysbios_heaps_HeapMem_Instance_State_0_buf__A)
                  200011a0    00000200     rfExamples_pem3.oem3 (.bss:taskStackSection)
                  200013a0    000001b8     (.common:spiCC26XXDMAObjects)
                  20001558    0000012c     (.common:uartCC26XXObjects)
                  20001684    00000004     (.common:PIN_NumPins)
                  20001688    00000100     rf_singleMode_cc13xxware.aem3 : RFCC26XX_singleMode.oem3 (.bss:aCmdPool)
                  20001788    000000c8     (.common:ti_sysbios_family_arm_m3_Hwi_dispatchTable)
                  20001850    000000c0     rfWakeOnRadioTx.obj (.bss:rfObject)
                  20001910    00000080     CC1310_LAUNCHXL.obj (.bss:uartStringBuf)
                  20001990    0000007c     drivers_cc13xxware.aem3 : PINCC26XX.oem3 (.bss:PIN_HandleTable)
                  20001a0c    0000006c     (.common:displaySharpObject)
                  20001a78    00000050     (.common:txTask)
                  20001ac8    0000003c     rfWakeOnRadioTx.obj (.bss:txTaskParams)
                  20001b04    00000034     drivers_cc13xxware.aem3 : PINCC26XX.oem3 (.bss:PinSwi)
                  20001b38    00000034     rf_singleMode_cc13xxware.aem3 : RFCC26XX_singleMode.oem3 (.bss:swiFsm)
                  20001b6c    00000034                                   : RFCC26XX_singleMode.oem3 (.bss:swiHw)
                  20001ba0    00000024                                   : RFCC26XX_singleMode.oem3 (.bss:clkPowerUp)
                  20001bc4    00000020     rfWakeOnRadioTx.obj (.bss:RF_cmdPropTxAdv)
                  20001be4    00000020     rfWakeOnRadioTx.obj (.bss:packet)
                  20001c04    00000020     (.common:PinGpioConfigTable)
                  20001c24    00000020     (.common:displayUartObject)
                  20001c44    00000020     (.common:uartCC26XXRingBuffer)
                  20001c64    00000020     (.common:udmaObjects)
                  20001c84    0000001c     rfWakeOnRadioTx.obj (.bss:txSemaphore)
                  20001ca0    0000001c     (.common:PinHwi)
                  20001cbc    0000001c     (.common:PinSem)
                  20001cd8    0000001c     (.common:hwiCpe0)
                  20001cf4    0000001c     (.common:hwiHw)
                  20001d10    00000018     (.common:cmdDirImm)
                  20001d28    00000014     driverlib.lib : osc.obj (.bss:oscHfGlobals)
                  20001d3c    00000014     rfWakeOnRadioTx.obj (.bss)
                  20001d50    00000014     (.common:cmdQ)
                  20001d64    00000014     (.common:opRatSync)
                  20001d78    00000014     (.common:spiTrans)
                  20001d8c    0000000c     rfWakeOnRadioTx.obj (.bss:buttonPinState)
                  20001d98    0000000c     rfWakeOnRadioTx.obj (.bss:ledPinState)
                  20001da4    00000008     driverlib.lib : sys_ctrl.obj (.bss:powerQualGlobals)
                  20001dac    00000004     (.common:activeTimeInUs)
                  20001db0    00000004     (.common:dispatchInUs)
                  20001db4    00000004     (.common:nRtc1)
                  20001db8    00000004     (.common:nRtc3)
                  20001dbc    00000004     (.common:pCurrClient)
                  20001dc0    00000004     (.common:pFsmState)
                  20001dc4    00000004     (.common:pPinGpio)
                  20001dc8    00000004     (.common:pinHandle)
                  20001dcc    00000004     (.common:spiHandle)
                  20001dd0    00000001     (.common:bInitAvailRatCh)
                  20001dd1    00000001     (.common:bPowerDownActive)
                  20001dd2    00000001     (.common:bPowerUpActive)
                  20001dd3    00000001     (.common:bRadioActive)
                  20001dd4    00000001     (.common:bRestart)
                  20001dd5    00000001     (.common:bStart)
                  20001dd6    00000001     (.common:bYieldPwrDnCalled)
                  20001dd7    00000001     (.common:bYieldPwrDnCancel)
                  20001dd8    00000001     (.common:csPinId)
                  20001dd9    00000001     (.common:driverlib_release_0_47020)
                  20001dda    00000001     (.common:nActiveClients)
                  20001ddb    00000001     (.common:nClients)
                  20001ddc    00000001     (.common:uartRxPowerConstraint)
                  20001ddd    00000001     (.common:uartTxPowerConstraint)

.data      0    20001de0    00000402     UNINITIALIZED
                  20001de0    00000110     drivers_cc13xxware.aem3 : PowerCC26XX.oem3 (.data:PowerCC26XX_module)
                  20001ef0    00000058     smartrf_settings.obj (.data:pOverrides)
                  20001f48    0000004c     rfExamples_pem3.oem3 (.data:ti_sysbios_knl_Task_Object__table__V)
                  20001f94    00000004     drivers_cc13xxware.aem3 : SPI.oem3 (.data)
                  20001f98    00000048     rfExamples_pem3.oem3 (.data:ti_sysbios_family_arm_cc26xx_Timer_Object__table__V)
                  20001fe0    00000038     rfExamples_pem3.oem3 (.data:ti_sysbios_gates_GateMutex_Object__table__V)
                  20002018    00000030     rfExamples_pem3.oem3 (.data:ti_sysbios_knl_Swi_Module_State_0_readyQ__A)
                  20002048    00000030     rfExamples_pem3.oem3 (.data:ti_sysbios_knl_Swi_Object__table__V)
                  20002078    00000028     smartrf_settings.obj (.data:RF_cmdPropRadioDivSetup)
                  200020a0    00000020     rfExamples_pem3.oem3 (.data:ti_sysbios_knl_Clock_Object__table__V)
                  200020c0    00000020     rfExamples_pem3.oem3 (.data:ti_sysbios_knl_Task_Module_State_0_readyQ__A)
                  200020e0    00000018     smartrf_settings.obj (.data:RF_cmdFs)
                  200020f8    00000018     smartrf_settings.obj (.data:RF_cmdPropTx)
                  20002110    00000018     rfExamples_pem3.oem3 (.data:ti_sysbios_family_arm_m3_Hwi_Object__table__V)
                  20002128    00000018     rfExamples_pem3.oem3 (.data:ti_sysbios_heaps_HeapMem_Object__table__V)
                  20002140    00000010     smartrf_settings.obj (.data:RF_prop)
                  20002150    0000000c     rfWakeOnRadioTx.obj (.data:pinTable)
                  2000215c    00000008     rtsv7M3_T_le_eabi.lib : _lock.obj (.data:$O1$$)
                  20002164    00000008     rfWakeOnRadioTx.obj (.data:buttonPinTable)
                  2000216c    00000008     rfExamples_pem3.oem3 (.data:ti_sysbios_family_arm_m3_Hwi_Module__root__V)
                  20002174    00000008     rfExamples_pem3.oem3 (.data:ti_sysbios_gates_GateHwi_Module__root__V)
                  2000217c    00000008     rfExamples_pem3.oem3 (.data:ti_sysbios_gates_GateMutex_Module__root__V)
                  20002184    00000008     rfExamples_pem3.oem3 (.data:ti_sysbios_hal_Hwi_Module__root__V)
                  2000218c    00000008     rfExamples_pem3.oem3 (.data:ti_sysbios_heaps_HeapMem_Module__root__V)
                  20002194    00000008     rfExamples_pem3.oem3 (.data:ti_sysbios_knl_Clock_Module__root__V)
                  2000219c    00000008     rfExamples_pem3.oem3 (.data:ti_sysbios_knl_Mailbox_Module__root__V)
                  200021a4    00000008     rfExamples_pem3.oem3 (.data:ti_sysbios_knl_Queue_Module__root__V)
                  200021ac    00000008     rfExamples_pem3.oem3 (.data:ti_sysbios_knl_Semaphore_Module__root__V)
                  200021b4    00000008     rfExamples_pem3.oem3 (.data:ti_sysbios_knl_Swi_Module__root__V)
                  200021bc    00000008     rfExamples_pem3.oem3 (.data:ti_sysbios_knl_Task_Module__root__V)
                  200021c4    00000004     drivers_cc13xxware.aem3 : UART.oem3 (.data)
                  200021c8    00000004     rtsv7M3_T_le_eabi.lib : rand.obj (.data)
                  200021cc    00000004                           : stkdepth_vars.obj (.data)
                  200021d0    00000004     rfExamples_pem3.oem3 (.data:ti_sysbios_family_arm_m3_Hwi_Module_State_0_excContext__A)
                  200021d4    00000004     rfExamples_pem3.oem3 (.data:ti_sysbios_family_arm_m3_Hwi_Module_State_0_excStack__A)
                  200021d8    00000004     rfExamples_pem3.oem3 (.data:ti_sysbios_knl_Task_Module_State_0_idleTask__A)
                  200021dc    00000002     lcd.aem3 : SharpGrLib.oem3 (.data)
                  200021de    00000002     rf_singleMode_cc13xxware.aem3 : RFCC26XX_singleMode.oem3 (.data)
                  200021e0    00000002     rfExamples_pem3.oem3 (.data:ti_sysbios_family_arm_m3_Hwi_Module_State_0_excActive__A)

.stack     0    20004d00    00000300     UNINITIALIZED
                  20004d00    00000300     --HOLE--

.const:xdc_runtime_Error_policy__C 
*          0    00001490    00000001     
                  00001490    00000001     rfExamples_pem3.oem3 (.const:xdc_runtime_Error_policy__C)

.const:ti_sysbios_rom_ROM_ti_sysbios_family_arm_cc26xx_Timer_initDevice__I 
*          0    000014b0    00000004     
                  000014b0    00000004     rfExamples_pem3.oem3 (.const:ti_sysbios_rom_ROM_ti_sysbios_family_arm_cc26xx_Timer_initDevice__I)

.const:ti_sysbios_gates_GateMutex_Instance_State_sem__O 
*          0    000014d0    00000004     
                  000014d0    00000004     rfExamples_pem3.oem3 (.const:ti_sysbios_gates_GateMutex_Instance_State_sem__O)

.const:ti_sysbios_knl_Mailbox_Instance_State_dataQue__O 
*          0    000014d8    00000004     
                  000014d8    00000004     rfExamples_pem3.oem3 (.const:ti_sysbios_knl_Mailbox_Instance_State_dataQue__O)

.const:ti_sysbios_knl_Task_Module_State_inactiveQ__O 
*          0    000014ec    00000004     
                  000014ec    00000004     rfExamples_pem3.oem3 (.const:ti_sysbios_knl_Task_Module_State_inactiveQ__O)

.data:ti_sysbios_knl_Clock_Module__state__V 
*          0    20000178    0000002c     UNINITIALIZED
                  20000178    0000002c     rfExamples_pem3.oem3 (.data:ti_sysbios_knl_Clock_Module__state__V)

.data:ti_sysbios_family_arm_cc26xx_TimestampProvider_Module__state__V 
*          0    200001ec    00000004     UNINITIALIZED
                  200001ec    00000004     rfExamples_pem3.oem3 (.data:ti_sysbios_family_arm_cc26xx_TimestampProvider_Module__state__V)

.data:xdc_runtime_Startup_Module__state__V 
*          0    200001f0    00000008     UNINITIALIZED
                  200001f0    00000008     rfExamples_pem3.oem3 (.data:xdc_runtime_Startup_Module__state__V)

.data:xdc_runtime_Memory_Module__state__V 
*          0    20000200    00000004     UNINITIALIZED
                  20000200    00000004     rfExamples_pem3.oem3 (.data:xdc_runtime_Memory_Module__state__V)

.bootVecs 
*          0    00000000    00000008     DSECT
                  00000000    00000008     boot.aem3 : boot.oem3 (.bootVecs)

.resetVecs 
*          0    00000000    0000003c     
                  00000000    0000003c     rfExamples_pem3.oem3 (.resetVecs)

.vecs      0    20000000    000000c8     NOLOAD SECTION
                  20000000    000000c8     rfExamples_pem3.oem3 (.vecs)

xdc.meta   0    00000000    0000010b     COPY SECTION
                  00000000    0000010b     rfExamples_pem3.oem3 (xdc.meta)

xdc.noload 
*          0    00000000    00000000     COPY SECTION

.TI.bound:dmaSpi0TxControlTableEntry 
*          0    20000440    00000010     UNINITIALIZED
                  20000440    00000010     drivers_cc13xxware.aem3 : SPICC26XXDMA.oem3 (.TI.bound:dmaSpi0TxControlTableEntry)

.TI.bound:dmaSpi1TxControlTableEntry 
*          0    20000510    00000010     UNINITIALIZED
                  20000510    00000010     drivers_cc13xxware.aem3 : SPICC26XXDMA.oem3 (.TI.bound:dmaSpi1TxControlTableEntry)

.binit     0    00000000    00000000     

MODULE SUMMARY

       Module                            code    ro data   rw data
       ------                            ----    -------   -------
    ./
       rfWakeOnRadioTx.obj               1096    0         1512   
       CC1310_LAUNCHXL.obj               0       316       2224   
       ccfg.obj                          0       88        0      
    +--+---------------------------------+-------+---------+---------+
       Total:                            1096    404       3736   
                                                                  
    ./smartrf_settings/
       smartrf_settings.obj              442     2368      192    
    +--+---------------------------------+-------+---------+---------+
       Total:                            442     2368      192    
                                                                  
    /Users/nathanshen95/Documents/workspace/rfWakeOnRadioTx_CC1310_LAUNCHXL_TI/Debug/configPkg/package/cfg/
       rfExamples_pem3.oem3              776     1475      2710   
    +--+---------------------------------+-------+---------+---------+
       Total:                            776     1475      2710   
                                                                  
    /Applications/ti/ccsv7/tools/compiler/ti-cgt-arm_16.9.4.LTS/lib/rtsv7M3_T_le_eabi.lib
       ull_div_t2.obj                    500     0         0      
       fd_add_t2.obj                     438     0         0      
       fd_cmp_t2.obj                     268     0         0      
       fd_mul_t2.obj                     252     0         0      
       memcpy_t2.obj                     156     0         0      
       memset_t2.obj                     122     0         0      
       copy_decompress_lzss.obj          104     0         0      
       rand.obj                          76      0         4      
       cpy_tbl.obj                       76      0         0      
       fd_toi_t2.obj                     72      0         0      
       fd_tou_t2.obj                     68      0         0      
       u_divt2.obj                       64      0         0      
       fs_tod_t2.obj                     56      0         0      
       i_tofd_t2.obj                     46      0         0      
       _lock.obj                         20      0         8      
       args_main.obj                     24      0         0      
       ll_mul_t2.obj                     24      0         0      
       strlen.obj                        20      0         0      
       copy_decompress_none.obj          14      0         0      
       copy_zero_init.obj                12      0         0      
       stkdepth_vars.obj                 0       0         4      
       i_div0.obj                        2       0         0      
    +--+---------------------------------+-------+---------+---------+
       Total:                            2414    0         16     
                                                                  
    /Applications/ti/tirtos_cc13xx_cc26xx_2_21_00_06/products/bios_6_46_01_37/packages/ti/targets/arm/rtsarm/lib/auto_init.aem3
       auto_init.oem3                    160     0         0      
    +--+---------------------------------+-------+---------+---------+
       Total:                            160     0         0      
                                                                  
    /Applications/ti/tirtos_cc13xx_cc26xx_2_21_00_06/products/bios_6_46_01_37/packages/ti/targets/arm/rtsarm/lib/boot.aem3
       boot.oem3                         68      0         0      
    +--+---------------------------------+-------+---------+---------+
       Total:                            68      0         0      
                                                                  
    /Applications/ti/tirtos_cc13xx_cc26xx_2_21_00_06/products/cc13xxware_2_04_03_17272/driverlib/bin/ccs/driverlib.lib
       setup_rom.obj                     1472    0         0      
       sys_ctrl.obj                      748     0         8      
       rfc.obj                           592     0         0      
       osc.obj                           376     0         20     
       setup.obj                         360     0         0      
       chipinfo.obj                      230     0         0      
       aon_rtc.obj                       44      0         0      
       ddi.obj                           44      0         0      
       adi.obj                           40      0         0      
       aon_batmon.obj                    40      0         0      
       cpu.obj                           30      0         0      
       vims.obj                          14      0         0      
       driverlib_release.obj             0       0         1      
    +--+---------------------------------+-------+---------+---------+
       Total:                            3990    0         29     
                                                                  
    /Applications/ti/tirtos_cc13xx_cc26xx_2_21_00_06/products/tidrivers_cc13xx_cc26xx_2_21_00_04/packages/ti/drivers/lib/drivers_cc13xxware.aem3
       UARTCC26XX.oem3                   2664    104       2      
       PowerCC26XX.oem3                  2096    76        272    
       SPICC26XXDMA.oem3                 2120    84        64     
       PINCC26XX.oem3                    1638    0         272    
       PowerCC26XX_calibrateRCOSC.oem3   1476    0         0      
       UDMACC26XX.oem3                   184     0         0      
       RingBuf.oem3                      152     0         0      
       UART.oem3                         92      36        4      
       SPI.oem3                          88      32        4      
       List.oem3                         82      0         0      
    +--+---------------------------------+-------+---------+---------+
       Total:                            10592   332       618    
                                                                  
    /Applications/ti/tirtos_cc13xx_cc26xx_2_21_00_06/products/tidrivers_cc13xx_cc26xx_2_21_00_04/packages/ti/drivers/lib/power_cc13xx_tirtos.aem3
       PowerCC26XX_tirtos.oem3           212     0         0      
    +--+---------------------------------+-------+---------+---------+
       Total:                            212     0         0      
                                                                  
    /Applications/ti/tirtos_cc13xx_cc26xx_2_21_00_06/products/tidrivers_cc13xx_cc26xx_2_21_00_04/packages/ti/drivers/ports/lib/tirtosport.aem3
       HwiP_tirtos.oem3                  4       0         0      
    +--+---------------------------------+-------+---------+---------+
       Total:                            4       0         0      
                                                                  
    /Applications/ti/tirtos_cc13xx_cc26xx_2_21_00_06/products/tidrivers_cc13xx_cc26xx_2_21_00_04/packages/ti/drivers/rf/lib/rf_singleMode_cc13xxware.aem3
       RFCC26XX_singleMode.oem3          4306    20        552    
    +--+---------------------------------+-------+---------+---------+
       Total:                            4306    20        552    
                                                                  
    /Applications/ti/tirtos_cc13xx_cc26xx_2_21_00_06/products/tidrivers_cc13xx_cc26xx_2_21_00_04/packages/ti/mw/display/lib/display.aem3
       DisplaySharp.oem3                 980     36        0      
       DisplayUart.oem3                  204     28        0      
       Display.oem3                      116     1         0      
    +--+---------------------------------+-------+---------+---------+
       Total:                            1300    65        0      
                                                                  
    /Applications/ti/tirtos_cc13xx_cc26xx_2_21_00_06/products/tidrivers_cc13xx_cc26xx_2_21_00_04/packages/ti/mw/grlib/lib/grlib.aem3
       fontfixed6x8.oem3                 0       960       0      
       string.oem3                       770     0         0      
       rectangle.oem3                    136     0         0      
       line.oem3                         78      0         0      
       context.oem3                      34      0         0      
    +--+---------------------------------+-------+---------+---------+
       Total:                            1018    960       0      
                                                                  
    /Applications/ti/tirtos_cc13xx_cc26xx_2_21_00_06/products/tidrivers_cc13xx_cc26xx_2_21_00_04/packages/ti/mw/lcd/lib/lcd.aem3
       SharpGrLib.oem3                   1196    48        31     
    +--+---------------------------------+-------+---------+---------+
       Total:                            1196    48        31     
                                                                  
    /Users/nathanshen95/Documents/workspace/rfWakeOnRadioTx_CC1310_LAUNCHXL_TI/src/sysbios/rom_sysbios.aem3
       rom_sysbios.obj                   1751    0         0      
       rom_sysbios_config.obj            26      0         0      
    +--+---------------------------------+-------+---------+---------+
       Total:                            1777    0         0      
                                                                  
       Stack:                            0       0         768    
       Linker Generated:                 360     795       0      
    +--+---------------------------------+-------+---------+---------+
       Grand Total:                      29711   6467      8652   


LINKER GENERATED COPY TABLES

__TI_cinit_table @ 000002e0 records: 16, size/record: 8, table size: 128
	.data: load addr=00000040, load size=000001aa bytes, run addr=20001de0, run size=00000402 bytes, compression=lzss
	.data:ti_sysbios_family_arm_m3_Hwi_Module__state__V: load addr=000001ea, load size=00000028 bytes, run addr=20000144, run size=00000034 bytes, compression=lzss
	.data:ti_sysbios_knl_Task_Module__state__V: load addr=00000212, load size=00000021 bytes, run addr=20000100, run size=00000044 bytes, compression=lzss
	.data:ti_sysbios_BIOS_Module__state__V: load addr=00000233, load size=0000001f bytes, run addr=200001a4, run size=00000024 bytes, compression=lzss
	.data:ti_sysbios_knl_Clock_Module__state__V: load addr=00000252, load size=0000001d bytes, run addr=20000178, run size=0000002c bytes, compression=lzss
	.data:ti_sysbios_knl_Swi_Module__state__V: load addr=0000026f, load size=00000010 bytes, run addr=200001c8, run size=0000001c bytes, compression=lzss
	.data:ti_sysbios_family_arm_cc26xx_Timer_Module__state__V: load addr=0000028c, load size=0000000b bytes, run addr=200001e4, run size=00000008 bytes, compression=lzss
	.TI.bound:dmaSpi0RxControlTableEntry: load addr=00000298, load size=00000008 bytes, run addr=20000430, run size=00000010 bytes, compression=zero_init
	.TI.bound:dmaSpi0TxControlTableEntry: load addr=000002a0, load size=00000008 bytes, run addr=20000440, run size=00000010 bytes, compression=zero_init
	.TI.bound:dmaSpi1RxControlTableEntry: load addr=000002a8, load size=00000008 bytes, run addr=20000500, run size=00000010 bytes, compression=zero_init
	.TI.bound:dmaSpi1TxControlTableEntry: load addr=000002b0, load size=00000008 bytes, run addr=20000510, run size=00000010 bytes, compression=zero_init
	.bss: load addr=000002b8, load size=00000008 bytes, run addr=20000520, run size=000018be bytes, compression=zero_init
	.data:xdc_runtime_Memory_Module__state__V: load addr=000002c0, load size=00000008 bytes, run addr=20000200, run size=00000004 bytes, compression=lzss
	.data:ti_sysbios_family_arm_cc26xx_TimestampProvider_Module__state__V: load addr=000002c8, load size=00000007 bytes, run addr=200001ec, run size=00000004 bytes, compression=lzss
	.data:xdc_runtime_Startup_Module__state__V: load addr=000002cf, load size=00000007 bytes, run addr=200001f0, run size=00000008 bytes, compression=lzss
	.data:xdc_runtime_System_Module__state__V: load addr=000002d6, load size=00000007 bytes, run addr=200001f8, run size=00000008 bytes, compression=lzss


LINKER GENERATED HANDLER TABLE

__TI_handler_table @ 00000280 records: 3, size/record: 4, table size: 12
	index: 0, handler: __TI_decompress_lzss
	index: 1, handler: __TI_decompress_none
	index: 2, handler: __TI_zero_init


FAR CALL TRAMPOLINES

callee name               trampoline name
   callee addr  tramp addr   call addr  call info
--------------  -----------  ---------  ----------------
xdc_runtime_Startup_startMods__I  $Tramp$TT$L$PI$$xdc_runtime_Startup_startMods__I
   1001c309     00008798     00008568   rfExamples_pem3.oem3 (.text:xdc_runtime_Startup_exec__I)
ti_sysbios_knl_Clock_logTick__E  $Tramp$TT$L$PI$$ti_sysbios_knl_Clock_logTick__E
   1001be63     000087a0     0000853a   rfExamples_pem3.oem3 (.text:ti_sysbios_knl_Clock_doTick__I)
ti_sysbios_knl_Task_Params__init__S  $Tramp$TT$L$PI$$ti_sysbios_knl_Task_Params__init__S
   1001c1d5     000087a8     000084a4   rfWakeOnRadioTx.obj (.text:ti_sysbios_knl_Task_Params_init)
ti_sysbios_BIOS_RtsGateProxy_leave__E  $Tramp$TT$L$PI$$ti_sysbios_BIOS_RtsGateProxy_leave__E
   1001c249     000087b0     0000842e   rfExamples_pem3.oem3 (.text:ti_sysbios_BIOS_rtsUnlock__I)
ti_sysbios_BIOS_RtsGateProxy_enter__E  $Tramp$TT$L$PI$$ti_sysbios_BIOS_RtsGateProxy_enter__E
   1001c245     000087b8     0000809a   rfExamples_pem3.oem3 (.text:ti_sysbios_BIOS_rtsLock__I)
ti_sysbios_knl_Task_startup__E  $Tramp$TT$L$PI$$ti_sysbios_knl_Task_startup__E
   1001c305     000087c0     00007be8   rfExamples_pem3.oem3 (.text:ti_sysbios_BIOS_startFunc__I)
ti_sysbios_knl_Swi_startup__E  $Tramp$TT$L$PI$$ti_sysbios_knl_Swi_startup__E
   1001c239     000087c8     00007be4   rfExamples_pem3.oem3 (.text:ti_sysbios_BIOS_startFunc__I)
ti_sysbios_hal_Hwi_startup__E  $Tramp$TT$L$PI$$ti_sysbios_hal_Hwi_startup__E
   1001c289     000087d0     00007be0   rfExamples_pem3.oem3 (.text:ti_sysbios_BIOS_startFunc__I)
ti_sysbios_family_arm_cc26xx_Timer_startup__E  $Tramp$TT$L$PI$$ti_sysbios_family_arm_cc26xx_Timer_startup__E
   1001b791     000087d8     00007bdc   rfExamples_pem3.oem3 (.text:ti_sysbios_BIOS_startFunc__I)
xdc_runtime_System_atexit__E  $Tramp$TT$L$PI$$xdc_runtime_System_atexit__E
   1001c67d     000087e0     00007bd4   rfExamples_pem3.oem3 (.text:ti_sysbios_BIOS_startFunc__I)
ti_sysbios_BIOS_setThreadType__E  $Tramp$TT$L$PI$$ti_sysbios_BIOS_setThreadType__E
   1001c041     000087e8     00007ba0   rfExamples_pem3.oem3 (.text:ti_sysbios_BIOS_atExitFunc__I)
                             00008488   rfExamples_pem3.oem3 (.text:ti_sysbios_BIOS_exitFunc__I)
xdc_runtime_System_exit__E  $Tramp$TT$L$PI$$xdc_runtime_System_exit__E
   1001c7cd     000087f0     00007500   boot.aem3 : boot.oem3 (.text)
                             0000848e   rfExamples_pem3.oem3 (.text:ti_sysbios_BIOS_exitFunc__I)
ti_sysbios_knl_Task_construct  $Tramp$TT$L$PI$$ti_sysbios_knl_Task_construct
   1001b125     000087f8     00006814   rfWakeOnRadioTx.obj (.text:txTaskInit)
ti_sysbios_knl_Clock_destruct  $Tramp$TT$L$PI$$ti_sysbios_knl_Clock_destruct
   1001c2b5     00008800     00006008   drivers_cc13xxware.aem3 : UARTCC26XX.oem3 (.text:UARTCC26XX_close)
ti_sysbios_knl_Semaphore_destruct  $Tramp$TT$L$PI$$ti_sysbios_knl_Semaphore_destruct
   1001c2dd     00008808     00005ff4   drivers_cc13xxware.aem3 : UARTCC26XX.oem3 (.text:UARTCC26XX_close)
                             00006000                           : UARTCC26XX.oem3 (.text:UARTCC26XX_close)
                             00006c8a                           : SPICC26XXDMA.oem3 (.text:SPICC26XXDMA_close)
                             00008238   display.aem3 : DisplayUart.oem3 (.text:DisplayUart_close)
ti_sysbios_knl_Swi_destruct  $Tramp$TT$L$PI$$ti_sysbios_knl_Swi_destruct
   1001c2e5     00008810     00005fe8   drivers_cc13xxware.aem3 : UARTCC26XX.oem3 (.text:UARTCC26XX_close)
                             00006c78                           : SPICC26XXDMA.oem3 (.text:SPICC26XXDMA_close)
ti_sysbios_family_arm_m3_Hwi_destruct  $Tramp$TT$L$PI$$ti_sysbios_family_arm_m3_Hwi_destruct
   1001c25d     00008818     00005fe0   drivers_cc13xxware.aem3 : UARTCC26XX.oem3 (.text:UARTCC26XX_close)
                             00006c70                           : SPICC26XXDMA.oem3 (.text:SPICC26XXDMA_close)
                             000078c2                           : UDMACC26XX.oem3 (.text:UDMACC26XX_close)
ti_sysbios_knl_Clock_scheduleNextTick__E  $Tramp$TT$L$PI$$ti_sysbios_knl_Clock_scheduleNextTick__E
   1001beb9     00008820     000058a2   rom_sysbios.aem3 : rom_sysbios.obj (.text:ti_sysbios_knl_Clock_workFuncDynamic__E)
ti_sysbios_knl_Clock_walkQueueDynamic__E  $Tramp$TT$L$PI$$ti_sysbios_knl_Clock_walkQueueDynamic__E
   1001a809     00008828     0000586a   rom_sysbios.aem3 : rom_sysbios.obj (.text:ti_sysbios_knl_Clock_workFuncDynamic__E)
                             00005886                    : rom_sysbios.obj (.text:ti_sysbios_knl_Clock_workFuncDynamic__E)
ti_sysbios_knl_Clock_TimerProxy_getCurrentTick__E  $Tramp$TT$L$PI$$ti_sysbios_knl_Clock_TimerProxy_getCurrentTick__E
   1001c091     00008830     00005838   rom_sysbios.aem3 : rom_sysbios.obj (.text:ti_sysbios_knl_Clock_workFuncDynamic__E)
                             00007dc6                    : rom_sysbios.obj (.text:ti_sysbios_knl_Clock_getTicksUntilInterrupt__E)
ti_sysbios_family_arm_m3_Hwi_enableInterrupt__E  $Tramp$TT$L$PI$$ti_sysbios_family_arm_m3_Hwi_enableInterrupt__E
   1001b295     00008838     000051e8   rf_singleMode_cc13xxware.aem3 : RFCC26XX_singleMode.oem3 (.text:fsmPowerUpState)
ti_sysbios_BIOS_start__E  $Tramp$TT$L$PI$$ti_sysbios_BIOS_start__E
   1001c051     00008840     000050dc   rfWakeOnRadioTx.obj (.text:main)
ti_sysbios_BIOS_getCpuFreq__E  $Tramp$TT$L$PI$$ti_sysbios_BIOS_getCpuFreq__E
   1001bff5     00008848     0000501c   drivers_cc13xxware.aem3 : UARTCC26XX.oem3 (.text:UARTCC26XX_initHw)
                             00006986                           : SPICC26XXDMA.oem3 (.text:SPICC26XXDMA_initHw)
ti_sysbios_knl_Task_sleep__E  $Tramp$TT$L$PI$$ti_sysbios_knl_Task_sleep__E
   1001a9d9     00008850     00004100   lcd.aem3 : SharpGrLib.oem3 (.text:SharpGrLib_flush)
                             00004192            : SharpGrLib.oem3 (.text:SharpGrLib_flush)
                             00005322            : SharpGrLib.oem3 (.text:SharpGrLib_clearScreen)
                             00005358            : SharpGrLib.oem3 (.text:SharpGrLib_clearScreen)
ti_sysbios_knl_Swi_post__E  $Tramp$TT$L$PI$$ti_sysbios_knl_Swi_post__E
   1001b31d     00008858     00003e88   drivers_cc13xxware.aem3 : UARTCC26XX.oem3 (.text:UARTCC26XX_read)
                             00004020                           : UARTCC26XX.oem3 (.text:UARTCC26XX_hwiIntFxn)
                             0000569a                           : SPICC26XXDMA.oem3 (.text:SPICC26XXDMA_hwiFxn)
                             0000844c   rom_sysbios.aem3 : rom_sysbios.obj (.text:ti_sysbios_knl_Swi_or__E)
                             00008542   rfExamples_pem3.oem3 (.text:ti_sysbios_knl_Clock_doTick__I)
ti_sysbios_knl_Semaphore_post__E  $Tramp$TT$L$PI$$ti_sysbios_knl_Semaphore_post__E
   1001ac41     00008860     000038a8   display.aem3 : DisplaySharp.oem3 (.text:DisplaySharp_open)
                             0000484c                : DisplaySharp.oem3 (.text:DisplaySharp_put5)
                             00004df2                : DisplaySharp.oem3 (.text:DisplaySharp_control)
                             00005936   drivers_cc13xxware.aem3 : PINCC26XX.oem3 (.text:PIN_open)
                             000061a6   rf_singleMode_cc13xxware.aem3 : RFCC26XX_singleMode.oem3 (.text:fsmPowerDownState)
                             00006480   drivers_cc13xxware.aem3 : PINCC26XX.oem3 (.text:PIN_add)
                             00006cf6   display.aem3 : DisplayUart.oem3 (.text:DisplayUart_put5)
                             00006fe8   rf_singleMode_cc13xxware.aem3 : RFCC26XX_singleMode.oem3 (.text:syncCb)
                             00007200   display.aem3 : DisplaySharp.oem3 (.text:DisplaySharp_close)
                             00007a3c                : DisplaySharp.oem3 (.text:DisplaySharp_clear)
                             00007d78   rfWakeOnRadioTx.obj (.text:buttonCallbackFunction)
                             0000872c   drivers_cc13xxware.aem3 : SPICC26XXDMA.oem3 (.text:SPICC26XXDMA_transferCallback)
                             00008734                           : UARTCC26XX.oem3 (.text:readSemCallback)
                             00008744                           : UARTCC26XX.oem3 (.text:writeSemCallback)
ti_sysbios_knl_Clock_construct  $Tramp$TT$L$PI$$ti_sysbios_knl_Clock_construct
   1001b575     00008868     000031da   drivers_cc13xxware.aem3 : UARTCC26XX.oem3 (.text:UARTCC26XX_open)
                             00003a4a                           : PowerCC26XX.oem3 (.text:Power_init)
                             00003a58                           : PowerCC26XX.oem3 (.text:Power_init)
                             00003a66                           : PowerCC26XX.oem3 (.text:Power_init)
                             00003bce   rf_singleMode_cc13xxware.aem3 : RFCC26XX_singleMode.oem3 (.text:rf_init)
                             00004fb4                                 : RFCC26XX_singleMode.oem3 (.text:RF_open)
                             000064e0   drivers_cc13xxware.aem3 : PowerCC26XX.oem3 (.text:PowerCC26XX_calibrate)
ti_sysbios_knl_Clock_Params__init__S  $Tramp$TT$L$PI$$ti_sysbios_knl_Clock_Params__init__S
   1001c181     00008870     000031c2   drivers_cc13xxware.aem3 : UARTCC26XX.oem3 (.text:UARTCC26XX_open)
                             00003a32                           : PowerCC26XX.oem3 (.text:Power_init)
                             00004fa4   rf_singleMode_cc13xxware.aem3 : RFCC26XX_singleMode.oem3 (.text:RF_open)
                             000064c8   drivers_cc13xxware.aem3 : PowerCC26XX.oem3 (.text:PowerCC26XX_calibrate)
xdc_runtime_System_abortSpin__E  $Tramp$TT$L$PI$$xdc_runtime_System_abortSpin__E
   1001c895     00008878     00002fc4   drivers_cc13xxware.aem3 : PowerCC26XX_calibrateRCOSC.oem3 (.text:PowerCC26XX_doCalibrate)
                             00006922                           : PowerCC26XX_calibrateRCOSC.oem3 (.text:PowerCC26XX_RCOSC_clockFunc)
ti_sysbios_knl_Swi_construct  $Tramp$TT$L$PI$$ti_sysbios_knl_Swi_construct
   1001b085     00008880     00002cc0   drivers_cc13xxware.aem3 : PINCC26XX.oem3 (.text:PIN_init)
                             0000317e                           : UARTCC26XX.oem3 (.text:UARTCC26XX_open)
                             0000371e                           : SPICC26XXDMA.oem3 (.text:SPICC26XXDMA_open)
                             00003b5e   rf_singleMode_cc13xxware.aem3 : RFCC26XX_singleMode.oem3 (.text:rf_init)
                             00003b9e                                 : RFCC26XX_singleMode.oem3 (.text:rf_init)
ti_sysbios_knl_Swi_Params__init__S  $Tramp$TT$L$PI$$ti_sysbios_knl_Swi_Params__init__S
   1001c1c9     00008888     00002cae   drivers_cc13xxware.aem3 : PINCC26XX.oem3 (.text:PIN_init)
                             00003168                           : UARTCC26XX.oem3 (.text:UARTCC26XX_open)
                             0000370a                           : SPICC26XXDMA.oem3 (.text:SPICC26XXDMA_open)
                             00003b4c   rf_singleMode_cc13xxware.aem3 : RFCC26XX_singleMode.oem3 (.text:rf_init)
                             00003b8e                                 : RFCC26XX_singleMode.oem3 (.text:rf_init)
ti_sysbios_family_arm_m3_Hwi_construct  $Tramp$TT$L$PI$$ti_sysbios_family_arm_m3_Hwi_construct
   1001af29     00008890     00002ca2   drivers_cc13xxware.aem3 : PINCC26XX.oem3 (.text:PIN_init)
                             0000315c                           : UARTCC26XX.oem3 (.text:UARTCC26XX_open)
                             000036fe                           : SPICC26XXDMA.oem3 (.text:SPICC26XXDMA_open)
                             00003b82   rf_singleMode_cc13xxware.aem3 : RFCC26XX_singleMode.oem3 (.text:rf_init)
                             00003bc2                                 : RFCC26XX_singleMode.oem3 (.text:rf_init)
                             000064f0   drivers_cc13xxware.aem3 : PowerCC26XX.oem3 (.text:PowerCC26XX_calibrate)
                             00006b72                           : UDMACC26XX.oem3 (.text:UDMACC26XX_open)
ti_sysbios_family_arm_m3_Hwi_Params__init__S  $Tramp$TT$L$PI$$ti_sysbios_family_arm_m3_Hwi_Params__init__S
   1001c139     00008898     00002c8c   drivers_cc13xxware.aem3 : PINCC26XX.oem3 (.text:PIN_init)
                             00003140                           : UARTCC26XX.oem3 (.text:UARTCC26XX_open)
                             000036e6                           : SPICC26XXDMA.oem3 (.text:SPICC26XXDMA_open)
                             00003b6a   rf_singleMode_cc13xxware.aem3 : RFCC26XX_singleMode.oem3 (.text:rf_init)
                             00003baa                                 : RFCC26XX_singleMode.oem3 (.text:rf_init)
                             00006b5c   drivers_cc13xxware.aem3 : UDMACC26XX.oem3 (.text:UDMACC26XX_open)
ti_sysbios_knl_Semaphore_construct  $Tramp$TT$L$PI$$ti_sysbios_knl_Semaphore_construct
   1001b705     000088a0     00002c2a   drivers_cc13xxware.aem3 : PINCC26XX.oem3 (.text:PIN_init)
                             0000319e                           : UARTCC26XX.oem3 (.text:UARTCC26XX_open)
                             000031b2                           : UARTCC26XX.oem3 (.text:UARTCC26XX_open)
                             0000373e                           : SPICC26XXDMA.oem3 (.text:SPICC26XXDMA_open)
                             0000383a   display.aem3 : DisplaySharp.oem3 (.text:DisplaySharp_open)
                             00004f98   rf_singleMode_cc13xxware.aem3 : RFCC26XX_singleMode.oem3 (.text:RF_open)
                             000067e4   rfWakeOnRadioTx.obj (.text:txTaskInit)
                             00007070   display.aem3 : DisplayUart.oem3 (.text:DisplayUart_open)
ti_sysbios_knl_Semaphore_Params__init__S  $Tramp$TT$L$PI$$ti_sysbios_knl_Semaphore_Params__init__S
   1001c1bd     000088a8     00002c18   drivers_cc13xxware.aem3 : PINCC26XX.oem3 (.text:PIN_init)
                             0000318a                           : UARTCC26XX.oem3 (.text:UARTCC26XX_open)
                             0000372e                           : SPICC26XXDMA.oem3 (.text:SPICC26XXDMA_open)
                             00003828   display.aem3 : DisplaySharp.oem3 (.text:DisplaySharp_open)
                             00004f88   rf_singleMode_cc13xxware.aem3 : RFCC26XX_singleMode.oem3 (.text:RF_open)
                             00007062   display.aem3 : DisplayUart.oem3 (.text:DisplayUart_open)
ti_sysbios_knl_Task_restore__E  $Tramp$TT$L$PI$$ti_sysbios_knl_Task_restore__E
   1001ba45     000088b0     00002564   drivers_cc13xxware.aem3 : PowerCC26XX.oem3 (.text:Power_sleep)
ti_sysbios_knl_Swi_restore__E  $Tramp$TT$L$PI$$ti_sysbios_knl_Swi_restore__E
   1001b5dd     000088b8     0000255a   drivers_cc13xxware.aem3 : PowerCC26XX.oem3 (.text:Power_sleep)
                             00005eda   rf_singleMode_cc13xxware.aem3 : RFCC26XX_singleMode.oem3 (.text:RF_pendCmd)
                             00005f00                                 : RFCC26XX_singleMode.oem3 (.text:RF_pendCmd)
                             00005f1e                                 : RFCC26XX_singleMode.oem3 (.text:RF_pendCmd)
ti_sysbios_knl_Swi_disable__E  $Tramp$TT$L$PI$$ti_sysbios_knl_Swi_disable__E
   1001c0d1     000088c0     000023b6   drivers_cc13xxware.aem3 : PowerCC26XX.oem3 (.text:Power_sleep)
                             00005ec4   rf_singleMode_cc13xxware.aem3 : RFCC26XX_singleMode.oem3 (.text:RF_pendCmd)
                             00007b96   rfExamples_pem3.oem3 (.text:ti_sysbios_BIOS_atExitFunc__I)
ti_sysbios_knl_Task_disable__E  $Tramp$TT$L$PI$$ti_sysbios_knl_Task_disable__E
   1001c0f1     000088c8     0000239e   drivers_cc13xxware.aem3 : PowerCC26XX.oem3 (.text:Power_sleep)
                             00007b9a   rfExamples_pem3.oem3 (.text:ti_sysbios_BIOS_atExitFunc__I)
ti_sysbios_knl_Semaphore_pend__E  $Tramp$TT$L$PI$$ti_sysbios_knl_Semaphore_pend__E
   1001a001     000088d0     00001fee   rfWakeOnRadioTx.obj (.text:txTaskFunction)
                             00003844   display.aem3 : DisplaySharp.oem3 (.text:DisplaySharp_open)
                             00003e46   drivers_cc13xxware.aem3 : UARTCC26XX.oem3 (.text:UARTCC26XX_read)
                             0000423a                           : UARTCC26XX.oem3 (.text:UARTCC26XX_write)
                             00004276                           : UARTCC26XX.oem3 (.text:UARTCC26XX_write)
                             00004794   display.aem3 : DisplaySharp.oem3 (.text:DisplaySharp_put5)
                             00004d84                : DisplaySharp.oem3 (.text:DisplaySharp_control)
                             00004dc6                : DisplaySharp.oem3 (.text:DisplaySharp_control)
                             00004e00                : DisplaySharp.oem3 (.text:DisplaySharp_control)
                             0000542c   drivers_cc13xxware.aem3 : SPICC26XXDMA.oem3 (.text:SPICC26XXDMA_transfer)
                             00005442                           : SPICC26XXDMA.oem3 (.text:SPICC26XXDMA_transfer)
                             000058ce                           : PINCC26XX.oem3 (.text:PIN_open)
                             00005f0c   rf_singleMode_cc13xxware.aem3 : RFCC26XX_singleMode.oem3 (.text:RF_pendCmd)
                             000062b6   drivers_cc13xxware.aem3 : UARTCC26XX.oem3 (.text:writeTxFifoFlush)
                             00006454                           : PINCC26XX.oem3 (.text:PIN_add)
                             00006cb2   display.aem3 : DisplayUart.oem3 (.text:DisplayUart_put5)
                             000071d0                : DisplaySharp.oem3 (.text:DisplaySharp_close)
                             00007a20                : DisplaySharp.oem3 (.text:DisplaySharp_clear)
xdc_runtime_System_abort__E  $Tramp$TT$L$PI$$xdc_runtime_System_abort__E
   1001c745     000088d8     00001f8c   rfWakeOnRadioTx.obj (.text:txTaskFunction)
                             000050a4   rfWakeOnRadioTx.obj (.text:main)
                             000050bc   rfWakeOnRadioTx.obj (.text:main)
                             000050d4   rfWakeOnRadioTx.obj (.text:main)
ti_sysbios_knl_Clock_start__E  $Tramp$TT$L$PI$$ti_sysbios_knl_Clock_start__E
   1001bfdf     000088e0     000017a4   rf_singleMode_cc13xxware.aem3 : RFCC26XX_singleMode.oem3 (.text:fsmActiveState)
                             00002ab0                                 : RFCC26XX_singleMode.oem3 (.text:RF_postCmd)
                             00003052   drivers_cc13xxware.aem3 : PowerCC26XX_calibrateRCOSC.oem3 (.text:PowerCC26XX_doCalibrate)
                             00003af4                           : PowerCC26XX.oem3 (.text:Power_init)
                             00004b2c   power_cc13xx_tirtos.aem3 : PowerCC26XX_tirtos.oem3 (.text:PowerCC26XX_standbyPolicy)
                             000059d0   drivers_cc13xxware.aem3 : UARTCC26XX.oem3 (.text:writeFinishedDoCallback)
                             00005a36                           : PowerCC26XX.oem3 (.text:switchXOSCHFclockFunc)
                             00005bc4                           : PowerCC26XX.oem3 (.text:disableLFClockQualifiers)
                             00006168   rf_singleMode_cc13xxware.aem3 : RFCC26XX_singleMode.oem3 (.text:decActiveClientCnt)
                             000069f8                                 : RFCC26XX_singleMode.oem3 (.text:fsmXOSCState)
                             00006e42   drivers_cc13xxware.aem3 : PowerCC26XX.oem3 (.text:configureXOSCHF)
                             000071ae                           : UARTCC26XX.oem3 (.text:startTxFifoEmptyClk)
                             000080e6   rom_sysbios.aem3 : rom_sysbios.obj (.text:ti_sysbios_knl_Clock_stop__E)
ti_sysbios_knl_Clock_setTimeout__E  $Tramp$TT$L$PI$$ti_sysbios_knl_Clock_setTimeout__E
   1001c2bd     000088e8     0000179c   rf_singleMode_cc13xxware.aem3 : RFCC26XX_singleMode.oem3 (.text:fsmActiveState)
                             00002aaa                                 : RFCC26XX_singleMode.oem3 (.text:RF_postCmd)
                             00003aee   drivers_cc13xxware.aem3 : PowerCC26XX.oem3 (.text:Power_init)
                             00004b26   power_cc13xx_tirtos.aem3 : PowerCC26XX_tirtos.oem3 (.text:PowerCC26XX_standbyPolicy)
                             000059ca   drivers_cc13xxware.aem3 : UARTCC26XX.oem3 (.text:writeFinishedDoCallback)
                             00005a30                           : PowerCC26XX.oem3 (.text:switchXOSCHFclockFunc)
                             00005bbe                           : PowerCC26XX.oem3 (.text:disableLFClockQualifiers)
                             00006162   rf_singleMode_cc13xxware.aem3 : RFCC26XX_singleMode.oem3 (.text:decActiveClientCnt)
                             000069f2                                 : RFCC26XX_singleMode.oem3 (.text:fsmXOSCState)
                             00006e3c   drivers_cc13xxware.aem3 : PowerCC26XX.oem3 (.text:configureXOSCHF)
                             000071a8                           : UARTCC26XX.oem3 (.text:startTxFifoEmptyClk)
ti_sysbios_family_arm_m3_Hwi_restoreFxn__E  $Tramp$TT$L$PI$$ti_sysbios_family_arm_m3_Hwi_restoreFxn__E
   1001c215     000088f0     00001758   rf_singleMode_cc13xxware.aem3 : RFCC26XX_singleMode.oem3 (.text:fsmActiveState)
                             000017e6                                 : RFCC26XX_singleMode.oem3 (.text:fsmActiveState)
                             00001806                                 : RFCC26XX_singleMode.oem3 (.text:fsmActiveState)
                             00002a50                                 : RFCC26XX_singleMode.oem3 (.text:RF_postCmd)
                             00002aba                                 : RFCC26XX_singleMode.oem3 (.text:RF_postCmd)
                             00002b14                                 : RFCC26XX_singleMode.oem3 (.text:RF_postCmd)
                             0000309a   drivers_cc13xxware.aem3 : UARTCC26XX.oem3 (.text:UARTCC26XX_open)
                             000030aa                           : UARTCC26XX.oem3 (.text:UARTCC26XX_open)
                             00003130                           : UARTCC26XX.oem3 (.text:UARTCC26XX_open)
                             00003668                           : SPICC26XXDMA.oem3 (.text:SPICC26XXDMA_open)
                             00003678                           : SPICC26XXDMA.oem3 (.text:SPICC26XXDMA_open)
                             000036d6                           : SPICC26XXDMA.oem3 (.text:SPICC26XXDMA_open)
                             00003e24                           : UARTCC26XX.oem3 (.text:UARTCC26XX_read)
                             00003e62                           : UARTCC26XX.oem3 (.text:UARTCC26XX_read)
                             000041f2                           : UARTCC26XX.oem3 (.text:UARTCC26XX_write)
                             0000420e                           : UARTCC26XX.oem3 (.text:UARTCC26XX_write)
                             000042ac                           : UARTCC26XX.oem3 (.text:UARTCC26XX_write)
                             000045b6                           : SPICC26XXDMA.oem3 (.text:SPICC26XXDMA_transferCancel)
                             0000462a                           : SPICC26XXDMA.oem3 (.text:SPICC26XXDMA_transferCancel)
                             00004680                           : SPICC26XXDMA.oem3 (.text:SPICC26XXDMA_transferCancel)
                             0000490e                           : PINCC26XX.oem3 (.text:PINCC26XX_setIoCfg)
                             00004c72                           : PowerCC26XX.oem3 (.text:Power_releaseDependency)
                             00004ee6                           : PowerCC26XX.oem3 (.text:Power_setDependency)
                             00004f38   rf_singleMode_cc13xxware.aem3 : RFCC26XX_singleMode.oem3 (.text:RF_open)
                             00004f46                                 : RFCC26XX_singleMode.oem3 (.text:RF_open)
                             000053ba   drivers_cc13xxware.aem3 : SPICC26XXDMA.oem3 (.text:SPICC26XXDMA_transfer)
                             000053cc                           : SPICC26XXDMA.oem3 (.text:SPICC26XXDMA_transfer)
                             000053fe                           : SPICC26XXDMA.oem3 (.text:SPICC26XXDMA_transfer)
                             00005986                           : UARTCC26XX.oem3 (.text:writeFinishedDoCallback)
                             00005a5e                           : PowerCC26XX.oem3 (.text:switchXOSCHFclockFunc)
                             00005b1a                           : UARTCC26XX.oem3 (.text:UARTCC26XX_writeCancel)
                             00005b26                           : UARTCC26XX.oem3 (.text:UARTCC26XX_writeCancel)
                             00005b68                           : UARTCC26XX.oem3 (.text:UARTCC26XX_writeCancel)
                             00005e7a   rf_singleMode_cc13xxware.aem3 : RFCC26XX_singleMode.oem3 (.text:swiFxnHw)
                             00005e94                                 : RFCC26XX_singleMode.oem3 (.text:swiFxnHw)
                             00006014   drivers_cc13xxware.aem3 : UARTCC26XX.oem3 (.text:UARTCC26XX_close)
                             0000616e   rf_singleMode_cc13xxware.aem3 : RFCC26XX_singleMode.oem3 (.text:decActiveClientCnt)
                             0000653c   drivers_cc13xxware.aem3 : UARTCC26XX.oem3 (.text:UARTCC26XX_readCancel)
                             00006548                           : UARTCC26XX.oem3 (.text:UARTCC26XX_readCancel)
                             00006552                           : UARTCC26XX.oem3 (.text:UARTCC26XX_readCancel)
                             00006654   rf_singleMode_cc13xxware.aem3 : RFCC26XX_singleMode.oem3 (.text:RF_getCurrentTime)
                             0000665c                                 : RFCC26XX_singleMode.oem3 (.text:RF_getCurrentTime)
                             000067be   drivers_cc13xxware.aem3 : UARTCC26XX.oem3 (.text:UARTCC26XX_control)
                             00006b82                           : UDMACC26XX.oem3 (.text:UDMACC26XX_open)
                             00006ca0                           : SPICC26XXDMA.oem3 (.text:SPICC26XXDMA_close)
                             00006d26                           : PowerCC26XX_calibrateRCOSC.oem3 (.text:PowerCC26XX_initiateCalibration)
                             00006dee                           : SPICC26XXDMA.oem3 (.text:SPICC26XXDMA_swiFxn)
                             00006eee   rf_singleMode_cc13xxware.aem3 : RFCC26XX_singleMode.oem3 (.text:ratChanFree)
                             00007312   drivers_cc13xxware.aem3 : PINCC26XX.oem3 (.text:PIN_setOutputEnable)
                             0000745c                           : RingBuf.oem3 (.text:RingBuf_put)
                             00007486                           : RingBuf.oem3 (.text:RingBuf_put)
                             000075cc                           : RingBuf.oem3 (.text:RingBuf_get)
                             000075d4                           : RingBuf.oem3 (.text:RingBuf_get)
                             0000776a                           : UARTCC26XX.oem3 (.text:UARTCC26XX_swiIntFxn)
                             000078d0                           : UDMACC26XX.oem3 (.text:UDMACC26XX_close)
                             000079a0   rf_singleMode_cc13xxware.aem3 : RFCC26XX_singleMode.oem3 (.text:Q_push)
                             00007ac8   drivers_cc13xxware.aem3 : PowerCC26XX.oem3 (.text:Power_releaseConstraint)
                             00007af8                           : PowerCC26XX.oem3 (.text:Power_setConstraint)
                             00007ef2                           : List.oem3 (.text:List_put)
                             00008068                           : PowerCC26XX.oem3 (.text:Power_unregisterNotify)
                             00008370   rf_singleMode_cc13xxware.aem3 : RFCC26XX_singleMode.oem3 (.text:Q_pop)
ti_sysbios_family_arm_m3_Hwi_disableFxn__E  $Tramp$TT$L$PI$$ti_sysbios_family_arm_m3_Hwi_disableFxn__E
   1001c145     000088f8     0000173a   rf_singleMode_cc13xxware.aem3 : RFCC26XX_singleMode.oem3 (.text:fsmActiveState)
                             000017c6                                 : RFCC26XX_singleMode.oem3 (.text:fsmActiveState)
                             00002990                                 : RFCC26XX_singleMode.oem3 (.text:RF_postCmd)
                             00002a6a                                 : RFCC26XX_singleMode.oem3 (.text:RF_postCmd)
                             00003090   drivers_cc13xxware.aem3 : UARTCC26XX.oem3 (.text:UARTCC26XX_open)
                             0000312a                           : UARTCC26XX.oem3 (.text:UARTCC26XX_open)
                             0000365c                           : SPICC26XXDMA.oem3 (.text:SPICC26XXDMA_open)
                             000036ce                           : SPICC26XXDMA.oem3 (.text:SPICC26XXDMA_open)
                             00003e0c                           : UARTCC26XX.oem3 (.text:UARTCC26XX_read)
                             00003e4e                           : UARTCC26XX.oem3 (.text:UARTCC26XX_read)
                             000041d4                           : UARTCC26XX.oem3 (.text:UARTCC26XX_write)
                             000041f6                           : UARTCC26XX.oem3 (.text:UARTCC26XX_write)
                             0000424e                           : UARTCC26XX.oem3 (.text:UARTCC26XX_write)
                             00004298                           : UARTCC26XX.oem3 (.text:UARTCC26XX_write)
                             000045aa                           : SPICC26XXDMA.oem3 (.text:SPICC26XXDMA_transferCancel)
                             00004602                           : SPICC26XXDMA.oem3 (.text:SPICC26XXDMA_transferCancel)
                             000048f0                           : PINCC26XX.oem3 (.text:PINCC26XX_setIoCfg)
                             00004bbe                           : PowerCC26XX.oem3 (.text:Power_releaseDependency)
                             00004e36                           : PowerCC26XX.oem3 (.text:Power_setDependency)
                             00004f2e   rf_singleMode_cc13xxware.aem3 : RFCC26XX_singleMode.oem3 (.text:RF_open)
                             000053b0   drivers_cc13xxware.aem3 : SPICC26XXDMA.oem3 (.text:SPICC26XXDMA_transfer)
                             000053d4                           : SPICC26XXDMA.oem3 (.text:SPICC26XXDMA_transfer)
                             0000596e                           : UARTCC26XX.oem3 (.text:writeFinishedDoCallback)
                             000059e8                           : PowerCC26XX.oem3 (.text:switchXOSCHFclockFunc)
                             00005b0a                           : UARTCC26XX.oem3 (.text:UARTCC26XX_writeCancel)
                             00005b52                           : UARTCC26XX.oem3 (.text:UARTCC26XX_writeCancel)
                             00005e36   rf_singleMode_cc13xxware.aem3 : RFCC26XX_singleMode.oem3 (.text:swiFxnHw)
                             0000600c   drivers_cc13xxware.aem3 : UARTCC26XX.oem3 (.text:UARTCC26XX_close)
                             00006118   rf_singleMode_cc13xxware.aem3 : RFCC26XX_singleMode.oem3 (.text:decActiveClientCnt)
                             00006524   drivers_cc13xxware.aem3 : UARTCC26XX.oem3 (.text:UARTCC26XX_readCancel)
                             00006540                           : UARTCC26XX.oem3 (.text:UARTCC26XX_readCancel)
                             00006646   rf_singleMode_cc13xxware.aem3 : RFCC26XX_singleMode.oem3 (.text:RF_getCurrentTime)
                             00006796   drivers_cc13xxware.aem3 : UARTCC26XX.oem3 (.text:UARTCC26XX_control)
                             00006b48                           : UDMACC26XX.oem3 (.text:UDMACC26XX_open)
                             00006c96                           : SPICC26XXDMA.oem3 (.text:SPICC26XXDMA_close)
                             00006d12                           : PowerCC26XX_calibrateRCOSC.oem3 (.text:PowerCC26XX_initiateCalibration)
                             00006dc8                           : SPICC26XXDMA.oem3 (.text:SPICC26XXDMA_swiFxn)
                             00006eb0   rf_singleMode_cc13xxware.aem3 : RFCC26XX_singleMode.oem3 (.text:ratChanFree)
                             000072fc   drivers_cc13xxware.aem3 : PINCC26XX.oem3 (.text:PIN_setOutputEnable)
                             0000744e                           : RingBuf.oem3 (.text:RingBuf_put)
                             000075a4                           : RingBuf.oem3 (.text:RingBuf_get)
                             00007752                           : UARTCC26XX.oem3 (.text:UARTCC26XX_swiIntFxn)
                             000078a6                           : UDMACC26XX.oem3 (.text:UDMACC26XX_close)
                             00007982   rf_singleMode_cc13xxware.aem3 : RFCC26XX_singleMode.oem3 (.text:Q_push)
                             0000798a                                 : RFCC26XX_singleMode.oem3 (.text:Q_push)
                             00007aa8   drivers_cc13xxware.aem3 : PowerCC26XX.oem3 (.text:Power_releaseConstraint)
                             00007ad8                           : PowerCC26XX.oem3 (.text:Power_setConstraint)
                             00008058                           : PowerCC26XX.oem3 (.text:Power_unregisterNotify)
                             00008364   rf_singleMode_cc13xxware.aem3 : RFCC26XX_singleMode.oem3 (.text:Q_pop)
                             00008778   tirtosport.aem3 : HwiP_tirtos.oem3 (.text:HwiP_disable)

[45 trampolines]
[274 trampoline calls]


GLOBAL SYMBOLS: SORTED ALPHABETICALLY BY Name 

address   name                                                                      
-------   ----                                                                      
00009760  BoardGpioInitTable                                                        
00007a11  DisplaySharp_clear                                                        
00006841  DisplaySharp_clearLines                                                   
000071bd  DisplaySharp_close                                                        
00004d61  DisplaySharp_control                                                      
00009820  DisplaySharp_fxnTable                                                     
00008721  DisplaySharp_getType                                                      
00003795  DisplaySharp_open                                                         
00004777  DisplaySharp_put5                                                         
00002edb  DisplayUart_clear                                                         
00004857  DisplayUart_clearLines                                                    
00008227  DisplayUart_close                                                         
00008749  DisplayUart_control                                                       
000098c8  DisplayUart_fxnTable                                                      
0000874f  DisplayUart_getType                                                       
0000703f  DisplayUart_open                                                          
00006ca7  DisplayUart_put5                                                          
000097b4  Display_config                                                            
00009946  Display_defaultParams                                                     
00007251  Display_doOpen                                                            
00008755  Display_doParamsInit                                                      
00007ead  Display_doPut5                                                            
00007fd1  GrContextInit                                                             
00006ff1  GrLineDrawH                                                               
00005c19  GrRectFill                                                                
00001be5  GrStringDraw                                                              
00008779  HwiP_disable                                                              
UNDEFED   HwiP_restore                                                              
000086d9  List_empty                                                                
0000877d  List_head                                                                 
00008781  List_next                                                                 
00007ed3  List_put                                                                  
000081d9  List_remove                                                               
00007e0d  NOROM_AONBatMonTemperatureGetDegC                                         
000084ad  NOROM_AONRTCCurrent64BitValueGet                                          
00008241  NOROM_AONRTCCurrentCompareValueGet                                        
00008655  NOROM_CPUcpsid                                                            
00008661  NOROM_CPUcpsie                                                            
0000875b  NOROM_CPUdelay                                                            
00007299  NOROM_ChipInfo_GetChipFamily                                              
000062e5  NOROM_ChipInfo_GetHwRevision                                              
00008259  NOROM_ChipInfo_GetPackageType                                             
00007c81  NOROM_DDI32RegWrite                                                       
00007cad  NOROM_OSCClockSourceGet                                                   
000068a1  NOROM_OSCClockSourceSet                                                   
00006715  NOROM_OSCHF_AttemptToSwitchToXosc                                         
0000790d  NOROM_OSCHF_SwitchToRcOscTurnOffXosc                                      
00008271  NOROM_OSCHF_TurnOnXosc                                                    
00007621  NOROM_OSC_HPOSCRelativeFrequencyOffsetGet                                 
00007ff5  NOROM_RFCAdi3VcoLdoVoltageMode                                            
00008289  NOROM_RFCCpeIntGetAndClear                                                
00008015  NOROM_RFCDoorbellSendTo                                                   
00004939  NOROM_RFCRTrim                                                            
00004a11  NOROM_RFCRfTrimRead                                                       
00008581  NOROM_RFCRfTrimSet                                                        
0000765d  NOROM_RFCSynthPowerDown                                                   
000055a1  NOROM_SetupAfterColdResetWakeupFromShutDownCfg1                           
000044b1  NOROM_SetupAfterColdResetWakeupFromShutDownCfg2                           
000038d5  NOROM_SetupAfterColdResetWakeupFromShutDownCfg3                           
000082a1  NOROM_SetupGetTrimForAdcShModeEn                                          
000082b9  NOROM_SetupGetTrimForAdcShVbufEn                                          
000063c5  NOROM_SetupGetTrimForAmpcompCtrl                                          
000082d1  NOROM_SetupGetTrimForAmpcompTh1                                           
00008131  NOROM_SetupGetTrimForAmpcompTh2                                           
00006575  NOROM_SetupGetTrimForAnabypassValue1                                      
000082e9  NOROM_SetupGetTrimForDblrLoopFilterResetVoltage                           
00007cd9  NOROM_SetupGetTrimForRadcExtCfg                                           
00008301  NOROM_SetupGetTrimForRcOscLfIBiasTrim                                     
0000814d  NOROM_SetupGetTrimForRcOscLfRtuneCtuneTrim                                
00008035  NOROM_SetupGetTrimForXoscHfCtl                                            
00008591  NOROM_SetupGetTrimForXoscHfFastStart                                      
000085a1  NOROM_SetupGetTrimForXoscHfIbiastherm                                     
00008319  NOROM_SetupGetTrimForXoscLfRegulatorAndCmirrwrRatio                       
00007a75  NOROM_SetupSetAonRtcSubSecInc                                             
00006f01  NOROM_SetupSetCacheModeAccordingToCcfgSetting                             
0000602d  NOROM_SetupSetVddrLevel                                                   
000054f9  NOROM_SetupTrimDevice                                                     
00006a81  NOROM_SysCtrlAdjustRechargeAfterPowerDown                                 
00002155  NOROM_SysCtrlSetRechargeBeforePowerDown                                   
000065dd  NOROM_SysCtrl_DCDC_VoltageConditionalControl                              
00008469  NOROM_ThisCodeIsBuiltForCC13xxHwRev20AndLater_HaltIfViolated              
00008611  NOROM_VIMSModeGet                                                         
000081f3  NumLeadingZeros                                                           
00007699  PINCC26XX_getConfig                                                       
00007ef9  PINCC26XX_getPinCount                                                     
00009984  PINCC26XX_hwAttrs                                                         
00007d05  PINCC26XX_setMux                                                          
20001990  PIN_HandleTable                                                           
20001684  PIN_NumPins                                                               
00006431  PIN_add                                                                   
000080f5  PIN_close                                                                 
00008331  PIN_getConfig                                                             
000084c1  PIN_getInputValue                                                         
000084d5  PIN_getOutputValue                                                        
00002b61  PIN_init                                                                  
000058bd  PIN_open                                                                  
0000866d  PIN_registerIntCb                                                         
00006add  PIN_remove                                                                
00007941  PIN_setConfig                                                             
00007789  PIN_setInterrupt                                                          
000072e1  PIN_setOutputEnable                                                       
000076d5  PIN_setOutputValue                                                        
00006901  PowerCC26XX_RCOSC_clockFunc                                               
000060a1  PowerCC26XX_auxISR                                                        
0000649d  PowerCC26XX_calibrate                                                     
00009948  PowerCC26XX_config                                                        
00002edd  PowerCC26XX_doCalibrate                                                   
00006d01  PowerCC26XX_initiateCalibration                                           
20001de0  PowerCC26XX_module                                                        
00004ae5  PowerCC26XX_standbyPolicy                                                 
00008679  Power_getConstraintMask                                                   
00008685  Power_getDependencyCount                                                  
00008113  Power_getTransitionLatency                                                
00008349  Power_idleFunc                                                            
00003a05  Power_init                                                                
00007e35  Power_registerNotify                                                      
00007aa5  Power_releaseConstraint                                                   
00004bb9  Power_releaseDependency                                                   
00007ad5  Power_setConstraint                                                       
00004e31  Power_setDependency                                                       
0000237d  Power_sleep                                                               
00008055  Power_unregisterNotify                                                    
00009994  RFCC26XX_hwAttrs                                                          
000084e9  RF_Params_init                                                            
200020e0  RF_cmdFs                                                                  
20002078  RF_cmdPropRadioDivSetup                                                   
200020f8  RF_cmdPropTx                                                              
00006645  RF_getCurrentTime                                                         
00004f01  RF_open                                                                   
00005eb9  RF_pendCmd                                                                
00002985  RF_postCmd                                                                
20002140  RF_prop                                                                   
00007371  RF_runCmd                                                                 
000074d5  ResetISR                                                                  
0000854d  RingBuf_construct                                                         
0000759f  RingBuf_get                                                               
00007449  RingBuf_put                                                               
UNDEFED   SHT$$INIT_ARRAY$$Base                                                     
UNDEFED   SHT$$INIT_ARRAY$$Limit                                                    
00006c4d  SPICC26XXDMA_close                                                        
00004c8d  SPICC26XXDMA_control                                                      
00009600  SPICC26XXDMA_fxnTable                                                     
0000861f  SPICC26XXDMA_init                                                         
0000364d  SPICC26XXDMA_open                                                         
0000539d  SPICC26XXDMA_transfer                                                     
000045a1  SPICC26XXDMA_transferCancel                                               
000084fd  SPI_Params_init                                                           
000086e3  SPI_close                                                                 
000097d8  SPI_config                                                                
00009868  SPI_defaultParams                                                         
00007b05  SPI_open                                                                  
000086ed  SPI_transfer                                                              
00007e85  SafeHapiVoid                                                              
00007d31  SharpGrLib_init                                                           
00005fb5  UARTCC26XX_close                                                          
00006779  UARTCC26XX_control                                                        
0000978c  UARTCC26XX_fxnTable                                                       
00003fb5  UARTCC26XX_hwiIntFxn                                                      
00008379  UARTCC26XX_init                                                           
0000307d  UARTCC26XX_open                                                           
00003d81  UARTCC26XX_read                                                           
00006509  UARTCC26XX_readCancel                                                     
00008761  UARTCC26XX_readPolling                                                    
0000774d  UARTCC26XX_swiIntFxn                                                      
000041c5  UARTCC26XX_write                                                          
00005b01  UARTCC26XX_writeCancel                                                    
00008767  UARTCC26XX_writePolling                                                   
00008391  UART_Params_init                                                          
00008701  UART_close                                                                
000098e4  UART_config                                                               
000097fc  UART_defaultParams                                                        
00007b35  UART_open                                                                 
0000870b  UART_write                                                                
000078a1  UDMACC26XX_close                                                          
00009958  UDMACC26XX_config                                                         
00008715  UDMACC26XX_hwiIntFxn                                                      
00006b39  UDMACC26XX_open                                                           
00000000  __ASM__                                                                   
00000085  __ISA__                                                                   
00000097  __PLAT__                                                                  
20005000  __STACK_END                                                               
00000300  __STACK_SIZE                                                              
000000be  __TARG__                                                                  
000002e0  __TI_CINIT_Base                                                           
00000360  __TI_CINIT_Limit                                                          
00000280  __TI_Handler_Table_Base                                                   
0000028c  __TI_Handler_Table_Limit                                                  
000056e9  __TI_auto_init                                                            
000066ad  __TI_decompress_lzss                                                      
0000862d  __TI_decompress_none                                                      
ffffffff  __TI_pprof_out_hndl                                                       
ffffffff  __TI_prof_data_size                                                       
ffffffff  __TI_prof_data_start                                                      
00000040  __TI_static_base__                                                        
00008691  __TI_zero_init                                                            
000000e3  __TRDR__                                                                  
00005d29  __aeabi_cdcmpeq                                                           
00005d29  __aeabi_cdcmple                                                           
00005daf  __aeabi_cdrcmple                                                          
00007401  __aeabi_d2iz                                                              
00007519  __aeabi_d2uiz                                                             
00002d2f  __aeabi_dadd                                                              
000042c1  __aeabi_dmul                                                              
00002d25  __aeabi_dsub                                                              
000077f9  __aeabi_f2d                                                               
00007c53  __aeabi_i2d                                                               
00006cff  __aeabi_idiv0                                                             
000083f1  __aeabi_lmul                                                              
00005f39  __aeabi_memclr                                                            
00005f39  __aeabi_memclr4                                                           
00005f39  __aeabi_memclr8                                                           
00005789  __aeabi_memcpy                                                            
00005789  __aeabi_memcpy4                                                           
00005789  __aeabi_memcpy8                                                           
00005f3b  __aeabi_memset                                                            
00005f3b  __aeabi_memset4                                                           
00005f3b  __aeabi_memset8                                                           
000075df  __aeabi_uidiv                                                             
000075df  __aeabi_uidivmod                                                          
000025a5  __aeabi_uldivmod                                                          
ffffffff  __binit__                                                                 
ffffffff  __c_args__                                                                
0001ffa8  __ccfg                                                                    
20004d00  __stack                                                                   
000083d9  _args_main                                                                
000074d5  _c_int00                                                                  
2000215c  _lock                                                                     
0000851f  _nop                                                                      
00008517  _register_lock                                                            
00008511  _register_unlock                                                          
20002160  _unlock                                                                   
ffffffff  binit                                                                     
00007d5d  buttonCallbackFunction                                                    
20002164  buttonPinTable                                                            
000070d9  copy_in                                                                   
00009968  displaySharpHWattrs                                                       
20001a0c  displaySharpObject                                                        
000098fc  displayUartHWAttrs                                                        
20001c24  displayUartObject                                                         
20001dd9  driverlib_release_0_47020                                                 
00009538  g_sFontFixed6x8                                                           
00009888  g_sharpFxns                                                               
00005095  main                                                                      
200021cc  main_func_sp                                                              
00005789  memcpy                                                                    
00005f41  memset                                                                    
20002150  pinTable                                                                  
0000713b  rand                                                                      
00009654  resourceDB                                                                
000083c1  reverse                                                                   
00009728  spiCC26XXDMAHWAttrs                                                       
200013a0  spiCC26XXDMAObjects                                                       
00007125  srand                                                                     
00008525  strlen                                                                    
200001a4  ti_sysbios_BIOS_Module__state__V                                          
1001bc25  ti_sysbios_BIOS_RtsGateProxy_Handle__label__S                             
UNDEFED   ti_sysbios_BIOS_RtsGateProxy_Handle__label__S__mangled__                  
1001bab5  ti_sysbios_BIOS_RtsGateProxy_Object__delete__S                            
UNDEFED   ti_sysbios_BIOS_RtsGateProxy_Object__delete__S__mangled__                 
1001c175  ti_sysbios_BIOS_RtsGateProxy_Params__init__S                              
UNDEFED   ti_sysbios_BIOS_RtsGateProxy_Params__init__S__mangled__                   
1001c245  ti_sysbios_BIOS_RtsGateProxy_enter__E                                     
1001c249  ti_sysbios_BIOS_RtsGateProxy_leave__E                                     
1001c271  ti_sysbios_BIOS_RtsGateProxy_query__E                                     
UNDEFED   ti_sysbios_BIOS_RtsGateProxy_query__E__mangled__                          
00007b95  ti_sysbios_BIOS_atExitFunc__I                                             
0000847f  ti_sysbios_BIOS_exitFunc__I                                               
1001c031  ti_sysbios_BIOS_exit__E                                                   
1001bff5  ti_sysbios_BIOS_getCpuFreq__E                                             
0000708b  ti_sysbios_BIOS_linkedWithIncorrectBootLibrary__E                         
0000761f  ti_sysbios_BIOS_nullFunc__I                                               
00007f65  ti_sysbios_BIOS_registerRTSLock__I                                        
00007f89  ti_sysbios_BIOS_removeRTSLock__I                                          
00008095  ti_sysbios_BIOS_rtsLock__I                                                
00008421  ti_sysbios_BIOS_rtsUnlock__I                                              
1001c041  ti_sysbios_BIOS_setThreadType__E                                          
00007bc5  ti_sysbios_BIOS_startFunc__I                                              
1001c051  ti_sysbios_BIOS_start__E                                                  
000054f9  ti_sysbios_family_arm_cc26xx_Boot_trimDevice                              
00001406  ti_sysbios_family_arm_cc26xx_Timer_Module__id__C                          
1001bb45  ti_sysbios_family_arm_cc26xx_Timer_Module__startupDone__S                 
200001e4  ti_sysbios_family_arm_cc26xx_Timer_Module__state__V                       
1001ba6d  ti_sysbios_family_arm_cc26xx_Timer_Module_startup__E                      
20001f98  ti_sysbios_family_arm_cc26xx_Timer_Object__table__V                       
000080b5  ti_sysbios_family_arm_cc26xx_Timer_dynamicStub__E                         
0000878d  ti_sysbios_family_arm_cc26xx_Timer_getCount64__E                          
00007831  ti_sysbios_family_arm_cc26xx_Timer_getCurrentTick__E                      
1001c24d  ti_sysbios_family_arm_cc26xx_Timer_getExpiredTicks__E                     
00007fad  ti_sysbios_family_arm_cc26xx_Timer_getMaxTicks__E                         
1001c251  ti_sysbios_family_arm_cc26xx_Timer_getPeriod__E                           
000079dd  ti_sysbios_family_arm_cc26xx_Timer_initDevice__I                          
1001a465  ti_sysbios_family_arm_cc26xx_Timer_periodicStub__E                        
1001b765  ti_sysbios_family_arm_cc26xx_Timer_postInit__I                            
00007a43  ti_sysbios_family_arm_cc26xx_Timer_setNextTick__E                         
1001c255  ti_sysbios_family_arm_cc26xx_Timer_setPeriod__E                           
00007bf5  ti_sysbios_family_arm_cc26xx_Timer_setThreshold__I                        
000061fd  ti_sysbios_family_arm_cc26xx_Timer_start__E                               
00001384  ti_sysbios_family_arm_cc26xx_Timer_startupNeeded__C                       
1001b791  ti_sysbios_family_arm_cc26xx_Timer_startup__E                             
200001ec  ti_sysbios_family_arm_cc26xx_TimestampProvider_Module__state__V           
1001bb65  ti_sysbios_family_arm_cc26xx_TimestampProvider_Module_startup__E          
0000863b  ti_sysbios_family_arm_cc26xx_TimestampProvider_get32__E                   
1001b9cd  ti_sysbios_family_arm_cc26xx_TimestampProvider_get64__E                   
1001c12b  ti_sysbios_family_arm_cc26xx_TimestampProvider_getFreq__E                 
00001408  ti_sysbios_family_arm_cc26xx_TimestampProvider_useClockTimer__C           
00001388  ti_sysbios_family_arm_m3_Hwi_E_alreadyDefined__C                          
0000138c  ti_sysbios_family_arm_m3_Hwi_E_hwiLimitExceeded__C                        
1001aed1  ti_sysbios_family_arm_m3_Hwi_Instance_finalize__E                         
1001a3c5  ti_sysbios_family_arm_m3_Hwi_Instance_init__E                             
200021e0  ti_sysbios_family_arm_m3_Hwi_Module_State_0_excActive__A                  
200021d0  ti_sysbios_family_arm_m3_Hwi_Module_State_0_excContext__A                 
200021d4  ti_sysbios_family_arm_m3_Hwi_Module_State_0_excStack__A                   
0000140a  ti_sysbios_family_arm_m3_Hwi_Module__id__C                                
2000216c  ti_sysbios_family_arm_m3_Hwi_Module__root__V                              
1001bb85  ti_sysbios_family_arm_m3_Hwi_Module__startupDone__S                       
20000144  ti_sysbios_family_arm_m3_Hwi_Module__state__V                             
1001b1c1  ti_sysbios_family_arm_m3_Hwi_Module_startup__E                            
00001390  ti_sysbios_family_arm_m3_Hwi_NUM_INTERRUPTS__C                            
000011d0  ti_sysbios_family_arm_m3_Hwi_Object__DESC__C                              
00001070  ti_sysbios_family_arm_m3_Hwi_Object__PARAMS__C                            
00001394  ti_sysbios_family_arm_m3_Hwi_Object__count__C                             
1001aab1  ti_sysbios_family_arm_m3_Hwi_Object__create__S                            
1001bba5  ti_sysbios_family_arm_m3_Hwi_Object__delete__S                            
1001be65  ti_sysbios_family_arm_m3_Hwi_Object__destruct__S                          
1001b7bd  ti_sysbios_family_arm_m3_Hwi_Object__get__S                               
00001398  ti_sysbios_family_arm_m3_Hwi_Object__table__C                             
20002110  ti_sysbios_family_arm_m3_Hwi_Object__table__V                             
1001c139  ti_sysbios_family_arm_m3_Hwi_Params__init__S                              
0000139c  ti_sysbios_family_arm_m3_Hwi_ccr__C                                       
1001af29  ti_sysbios_family_arm_m3_Hwi_construct                                    
1001ab15  ti_sysbios_family_arm_m3_Hwi_create                                       
1001c259  ti_sysbios_family_arm_m3_Hwi_delete                                       
1001c25d  ti_sysbios_family_arm_m3_Hwi_destruct                                     
1001c145  ti_sysbios_family_arm_m3_Hwi_disableFxn__E                                
1001b251  ti_sysbios_family_arm_m3_Hwi_disableInterrupt__E                          
1001aa49  ti_sysbios_family_arm_m3_Hwi_dispatchC__I                                 
20001788  ti_sysbios_family_arm_m3_Hwi_dispatchTable                                
1001c899  ti_sysbios_family_arm_m3_Hwi_dispatch__I                                  
1001c1f7  ti_sysbios_family_arm_m3_Hwi_doSwiRestore__I                              
1001c20f  ti_sysbios_family_arm_m3_Hwi_doTaskRestore__I                             
1001c151  ti_sysbios_family_arm_m3_Hwi_enableFxn__E                                 
1001b295  ti_sysbios_family_arm_m3_Hwi_enableInterrupt__E                           
1001c9fd  ti_sysbios_family_arm_m3_Hwi_excHandlerAsm__I                             
000013a0  ti_sysbios_family_arm_m3_Hwi_excHandlerFunc__C                            
1001bbc5  ti_sysbios_family_arm_m3_Hwi_excHandler__I                                
1001b461  ti_sysbios_family_arm_m3_Hwi_getStackInfo__E                              
1001a695  ti_sysbios_family_arm_m3_Hwi_initNVIC__E                                  
1001c9b5  ti_sysbios_family_arm_m3_Hwi_initStacks__E                                
000013a4  ti_sysbios_family_arm_m3_Hwi_nullIsrFunc__C                               
000013a8  ti_sysbios_family_arm_m3_Hwi_numSparseInterrupts__C                       
e000e000  ti_sysbios_family_arm_m3_Hwi_nvic                                         
1001ca3b  ti_sysbios_family_arm_m3_Hwi_pendSV__I                                    
1001c061  ti_sysbios_family_arm_m3_Hwi_plug__E                                      
1001a315  ti_sysbios_family_arm_m3_Hwi_postInit__I                                  
000085c1  ti_sysbios_family_arm_m3_Hwi_post__E                                      
000013ac  ti_sysbios_family_arm_m3_Hwi_priGroup__C                                  
20000000  ti_sysbios_family_arm_m3_Hwi_ramVectors                                   
00000000  ti_sysbios_family_arm_m3_Hwi_resetVectors                                 
1001c215  ti_sysbios_family_arm_m3_Hwi_restoreFxn__E                                
1001ca53  ti_sysbios_family_arm_m3_Hwi_return                                       
00008773  ti_sysbios_family_arm_m3_Hwi_setFunc__E                                   
1001be81  ti_sysbios_family_arm_m3_Hwi_setPriority__E                               
1001c1ff  ti_sysbios_family_arm_m3_Hwi_startup__E                                   
1001c009  ti_sysbios_family_arm_m3_Hwi_switchFromBootStack__E                       
1001c261  ti_sysbios_family_arm_m3_TaskSupport_Module__startupDone__S               
1001c969  ti_sysbios_family_arm_m3_TaskSupport_buildTaskStack                       
1001c15d  ti_sysbios_family_arm_m3_TaskSupport_getStackAlignment__E                 
1001ca55  ti_sysbios_family_arm_m3_TaskSupport_glue                                 
000013b0  ti_sysbios_family_arm_m3_TaskSupport_stackAlignment__C                    
1001b499  ti_sysbios_family_arm_m3_TaskSupport_start__E                             
1001ca65  ti_sysbios_family_arm_m3_TaskSupport_swap__E                              
1001ca1d  ti_sysbios_family_xxx_Hwi_switchAndRunFunc                                
1001bbe5  ti_sysbios_gates_GateHwi_Handle__label__S                                 
1001b45f  ti_sysbios_gates_GateHwi_Instance_init__E                                 
0000111c  ti_sysbios_gates_GateHwi_Module__FXNS__C                                  
0000140c  ti_sysbios_gates_GateHwi_Module__id__C                                    
20002174  ti_sysbios_gates_GateHwi_Module__root__V                                  
000011f0  ti_sysbios_gates_GateHwi_Object__DESC__C                                  
00001330  ti_sysbios_gates_GateHwi_Object__PARAMS__C                                
1001ba91  ti_sysbios_gates_GateHwi_Object__create__S                                
1001bc05  ti_sysbios_gates_GateHwi_Object__delete__S                                
1001c169  ti_sysbios_gates_GateHwi_enter__E                                         
1001c21b  ti_sysbios_gates_GateHwi_leave__E                                         
1001c265  ti_sysbios_gates_GateHwi_query__E                                         
1001bc25  ti_sysbios_gates_GateMutex_Handle__label__S                               
000014d0  ti_sysbios_gates_GateMutex_Instance_State_sem__O                          
1001c071  ti_sysbios_gates_GateMutex_Instance_finalize__E                           
1001be9d  ti_sysbios_gates_GateMutex_Instance_init__E                               
00001140  ti_sysbios_gates_GateMutex_Module__FXNS__C                                
0000140e  ti_sysbios_gates_GateMutex_Module__id__C                                  
2000217c  ti_sysbios_gates_GateMutex_Module__root__V                                
00001210  ti_sysbios_gates_GateMutex_Object__DESC__C                                
00001348  ti_sysbios_gates_GateMutex_Object__PARAMS__C                              
1001b645  ti_sysbios_gates_GateMutex_Object__create__S                              
1001bab5  ti_sysbios_gates_GateMutex_Object__delete__S                              
1001bc45  ti_sysbios_gates_GateMutex_Object__destruct__S                            
20001fe0  ti_sysbios_gates_GateMutex_Object__table__V                               
1001c175  ti_sysbios_gates_GateMutex_Params__init__S                                
1001b7e9  ti_sysbios_gates_GateMutex_construct                                      
1001b675  ti_sysbios_gates_GateMutex_create                                         
1001c269  ti_sysbios_gates_GateMutex_delete                                         
1001c26d  ti_sysbios_gates_GateMutex_destruct                                       
1001b6a5  ti_sysbios_gates_GateMutex_enter__E                                       
1001bf99  ti_sysbios_gates_GateMutex_leave__E                                       
1001c271  ti_sysbios_gates_GateMutex_query__E                                       
1001c275  ti_sysbios_hal_Hwi_HwiProxy_Module__startupDone__S                        
UNDEFED   ti_sysbios_hal_Hwi_HwiProxy_Module__startupDone__S__mangled__             
1001c081  ti_sysbios_hal_Hwi_HwiProxy_Object__create__S                             
1001bba5  ti_sysbios_hal_Hwi_HwiProxy_Object__delete__S                             
UNDEFED   ti_sysbios_hal_Hwi_HwiProxy_Object__delete__S__mangled__                  
1001c139  ti_sysbios_hal_Hwi_HwiProxy_Params__init__S                               
UNDEFED   ti_sysbios_hal_Hwi_HwiProxy_Params__init__S__mangled__                    
1001be45  ti_sysbios_hal_Hwi_HwiProxy_create                                        
1001c279  ti_sysbios_hal_Hwi_HwiProxy_delete                                        
1001c27d  ti_sysbios_hal_Hwi_HwiProxy_disableInterrupt__E                           
UNDEFED   ti_sysbios_hal_Hwi_HwiProxy_disableInterrupt__E__mangled__                
1001c281  ti_sysbios_hal_Hwi_HwiProxy_enableInterrupt__E                            
UNDEFED   ti_sysbios_hal_Hwi_HwiProxy_enableInterrupt__E__mangled__                 
1001c285  ti_sysbios_hal_Hwi_HwiProxy_getStackInfo__E                               
UNDEFED   ti_sysbios_hal_Hwi_HwiProxy_getStackInfo__E__mangled__                    
000085c1  ti_sysbios_hal_Hwi_HwiProxy_post__E                                       
1001c289  ti_sysbios_hal_Hwi_HwiProxy_startup__E                                    
UNDEFED   ti_sysbios_hal_Hwi_HwiProxy_startup__E__mangled__                         
1001c28d  ti_sysbios_hal_Hwi_HwiProxy_switchFromBootStack__E                        
UNDEFED   ti_sysbios_hal_Hwi_HwiProxy_switchFromBootStack__E__mangled__             
1001c1ed  ti_sysbios_hal_Hwi_Instance_finalize__E                                   
1001b9f5  ti_sysbios_hal_Hwi_Instance_init__E                                       
20002184  ti_sysbios_hal_Hwi_Module__root__V                                        
1001c01d  ti_sysbios_hal_Hwi_Module_startup__E                                      
00001230  ti_sysbios_hal_Hwi_Object__DESC__C                                        
000010a0  ti_sysbios_hal_Hwi_Object__PARAMS__C                                      
1001bc65  ti_sysbios_hal_Hwi_Object__delete__S                                      
1001ab79  ti_sysbios_hal_Hwi_create                                                 
1001c291  ti_sysbios_hal_Hwi_delete                                                 
1001c27d  ti_sysbios_hal_Hwi_disableInterrupt__E                                    
UNDEFED   ti_sysbios_hal_Hwi_disableInterrupt__E                                    
1001c281  ti_sysbios_hal_Hwi_enableInterrupt__E                                     
UNDEFED   ti_sysbios_hal_Hwi_enableInterrupt__E                                     
1001c285  ti_sysbios_hal_Hwi_getStackInfo__E                                        
UNDEFED   ti_sysbios_hal_Hwi_getStackInfo__E                                        
1001b815  ti_sysbios_hal_Hwi_initStack                                              
000085c1  ti_sysbios_hal_Hwi_post__E                                                
1001c289  ti_sysbios_hal_Hwi_startup__E                                             
UNDEFED   ti_sysbios_hal_Hwi_startup__E                                             
1001c295  ti_sysbios_hal_Hwi_switchFromBootStack__E                                 
UNDEFED   ti_sysbios_hal_Hwi_switchFromBootStack__E                                 
000013b4  ti_sysbios_heaps_HeapMem_E_memory__C                                      
1001bc85  ti_sysbios_heaps_HeapMem_Handle__label__S                                 
20000da0  ti_sysbios_heaps_HeapMem_Instance_State_0_buf__A                          
1001b4d1  ti_sysbios_heaps_HeapMem_Instance_init__E                                 
1001bc25  ti_sysbios_heaps_HeapMem_Module_GateProxy_Handle__label__S                
UNDEFED   ti_sysbios_heaps_HeapMem_Module_GateProxy_Handle__label__S__mangled__     
1001bab5  ti_sysbios_heaps_HeapMem_Module_GateProxy_Object__delete__S               
UNDEFED   ti_sysbios_heaps_HeapMem_Module_GateProxy_Object__delete__S__mangled__    
1001c175  ti_sysbios_heaps_HeapMem_Module_GateProxy_Params__init__S                 
UNDEFED   ti_sysbios_heaps_HeapMem_Module_GateProxy_Params__init__S__mangled__      
1001c299  ti_sysbios_heaps_HeapMem_Module_GateProxy_enter__E                        
1001c29d  ti_sysbios_heaps_HeapMem_Module_GateProxy_leave__E                        
1001c271  ti_sysbios_heaps_HeapMem_Module_GateProxy_query__E                        
UNDEFED   ti_sysbios_heaps_HeapMem_Module_GateProxy_query__E__mangled__             
000010cc  ti_sysbios_heaps_HeapMem_Module__FXNS__C                                  
000013b8  ti_sysbios_heaps_HeapMem_Module__gateObj__C                               
00001410  ti_sysbios_heaps_HeapMem_Module__id__C                                    
2000218c  ti_sysbios_heaps_HeapMem_Module__root__V                                  
00001250  ti_sysbios_heaps_HeapMem_Object__DESC__C                                  
00001164  ti_sysbios_heaps_HeapMem_Object__PARAMS__C                                
000013bc  ti_sysbios_heaps_HeapMem_Object__count__C                                 
1001b841  ti_sysbios_heaps_HeapMem_Object__create__S                                
1001bca5  ti_sysbios_heaps_HeapMem_Object__delete__S                                
1001b86d  ti_sysbios_heaps_HeapMem_Object__get__S                                   
000013c0  ti_sysbios_heaps_HeapMem_Object__table__C                                 
20002128  ti_sysbios_heaps_HeapMem_Object__table__V                                 
1001a195  ti_sysbios_heaps_HeapMem_alloc__E                                         
1001a791  ti_sysbios_heaps_HeapMem_free__E                                          
1001b209  ti_sysbios_heaps_HeapMem_getStats__E                                      
1001b541  ti_sysbios_heaps_HeapMem_init__I                                          
1001c2a1  ti_sysbios_heaps_HeapMem_isBlocking__E                                    
000013c4  ti_sysbios_heaps_HeapMem_reqAlign__C                                      
1001c101  ti_sysbios_heaps_HeapMem_restore__E                                       
1001bfc9  ti_sysbios_knl_Clock_Instance_finalize__E                                 
1001b509  ti_sysbios_knl_Clock_Instance_init__E                                     
000014d4  ti_sysbios_knl_Clock_Module_State_clockQ__O                               
20002194  ti_sysbios_knl_Clock_Module__root__V                                      
20000178  ti_sysbios_knl_Clock_Module__state__V                                     
1001bcc5  ti_sysbios_knl_Clock_Module_startup__E                                    
00001270  ti_sysbios_knl_Clock_Object__DESC__C                                      
00001188  ti_sysbios_knl_Clock_Object__PARAMS__C                                    
1001bad9  ti_sysbios_knl_Clock_Object__delete__S                                    
1001bce5  ti_sysbios_knl_Clock_Object__destruct__S                                  
200020a0  ti_sysbios_knl_Clock_Object__table__V                                     
1001c181  ti_sysbios_knl_Clock_Params__init__S                                      
1001c2a5  ti_sysbios_knl_Clock_TimerProxy_Module__startupDone__S                    
UNDEFED   ti_sysbios_knl_Clock_TimerProxy_Module__startupDone__S__mangled__         
1001c091  ti_sysbios_knl_Clock_TimerProxy_getCurrentTick__E                         
1001c2a9  ti_sysbios_knl_Clock_TimerProxy_getExpiredTicks__E                        
1001c0a1  ti_sysbios_knl_Clock_TimerProxy_getMaxTicks__E                            
1001c2ad  ti_sysbios_knl_Clock_TimerProxy_getPeriod__E                              
1001c0b1  ti_sysbios_knl_Clock_TimerProxy_setNextTick__E                            
1001b791  ti_sysbios_knl_Clock_TimerProxy_startup__E                                
UNDEFED   ti_sysbios_knl_Clock_TimerProxy_startup__E__mangled__                     
1001ba1d  ti_sysbios_knl_Clock_addI__E                                              
1001b575  ti_sysbios_knl_Clock_construct                                            
1001b3e9  ti_sysbios_knl_Clock_create                                               
1001c2b1  ti_sysbios_knl_Clock_delete                                               
1001c2b5  ti_sysbios_knl_Clock_destruct                                             
00008539  ti_sysbios_knl_Clock_doTick__I                                            
00007db5  ti_sysbios_knl_Clock_getTicksUntilInterrupt__E                            
1001b6d5  ti_sysbios_knl_Clock_getTicks__E                                          
1001c18d  ti_sysbios_knl_Clock_getTimerHandle__E                                    
1001be63  ti_sysbios_knl_Clock_logTick__E                                           
1001c2b9  ti_sysbios_knl_Clock_removeI__E                                           
1001beb9  ti_sysbios_knl_Clock_scheduleNextTick__E                                  
000013c8  ti_sysbios_knl_Clock_serviceMargin__C                                     
1001c2bd  ti_sysbios_knl_Clock_setTimeout__E                                        
1001a715  ti_sysbios_knl_Clock_startI__E                                            
1001bfdf  ti_sysbios_knl_Clock_start__E                                             
000080d5  ti_sysbios_knl_Clock_stop__E                                              
00001414  ti_sysbios_knl_Clock_tickMode__C                                          
00009998  ti_sysbios_knl_Clock_tickPeriod__C                                        
0000999c  ti_sysbios_knl_Clock_triggerClock__C                                      
00007e0b  ti_sysbios_knl_Clock_triggerFunc__I                                       
1001a809  ti_sysbios_knl_Clock_walkQueueDynamic__E                                  
00005825  ti_sysbios_knl_Clock_workFuncDynamic__E                                   
1001a881  ti_sysbios_knl_Clock_workFunc__E                                          
000099a0  ti_sysbios_knl_Idle_funcList__A                                           
00001378  ti_sysbios_knl_Idle_funcList__C                                           
1001c207  ti_sysbios_knl_Idle_loop__E                                               
1001bd05  ti_sysbios_knl_Idle_run__E                                                
000014d8  ti_sysbios_knl_Mailbox_Instance_State_dataQue__O                          
000014dc  ti_sysbios_knl_Mailbox_Instance_State_dataSem__O                          
000014e0  ti_sysbios_knl_Mailbox_Instance_State_freeQue__O                          
000014e4  ti_sysbios_knl_Mailbox_Instance_State_freeSem__O                          
1001a8f9  ti_sysbios_knl_Mailbox_Instance_finalize__E                               
1001a0cd  ti_sysbios_knl_Mailbox_Instance_init__E                                   
2000219c  ti_sysbios_knl_Mailbox_Module__root__V                                    
1001b2d9  ti_sysbios_knl_Mailbox_Module_startup__E                                  
00001290  ti_sysbios_knl_Mailbox_Object__DESC__C                                    
0000103c  ti_sysbios_knl_Mailbox_Object__PARAMS__C                                  
000013cc  ti_sysbios_knl_Mailbox_Object__count__C                                   
1001bd25  ti_sysbios_knl_Mailbox_Object__delete__S                                  
1001bed5  ti_sysbios_knl_Mailbox_Object__destruct__S                                
1001b899  ti_sysbios_knl_Mailbox_Object__get__S                                     
000013d0  ti_sysbios_knl_Mailbox_Object__table__C                                   
1001c199  ti_sysbios_knl_Mailbox_Params__init__S                                    
1001af81  ti_sysbios_knl_Mailbox_construct                                          
1001abdd  ti_sysbios_knl_Mailbox_create                                             
1001c2c1  ti_sysbios_knl_Mailbox_delete                                             
1001c2c5  ti_sysbios_knl_Mailbox_destruct                                           
000013d4  ti_sysbios_knl_Mailbox_maxTypeAlign__C                                    
1001a969  ti_sysbios_knl_Mailbox_pend__E                                            
1001b8c5  ti_sysbios_knl_Mailbox_postInit__I                                        
1001a58d  ti_sysbios_knl_Mailbox_post__E                                            
1001c227  ti_sysbios_knl_Queue_Instance_init__E                                     
200021a4  ti_sysbios_knl_Queue_Module__root__V                                      
000012b0  ti_sysbios_knl_Queue_Object__DESC__C                                      
00001360  ti_sysbios_knl_Queue_Object__PARAMS__C                                    
000013d8  ti_sysbios_knl_Queue_Object__count__C                                     
1001bd45  ti_sysbios_knl_Queue_Object__delete__S                                    
1001bef1  ti_sysbios_knl_Queue_Object__destruct__S                                  
1001bd65  ti_sysbios_knl_Queue_Object__get__S                                       
000013dc  ti_sysbios_knl_Queue_Object__table__C                                     
1001b8f1  ti_sysbios_knl_Queue_construct                                            
1001b91d  ti_sysbios_knl_Queue_create                                               
1001c2c9  ti_sysbios_knl_Queue_delete                                               
1001c1a5  ti_sysbios_knl_Queue_dequeue__E                                           
1001c2cd  ti_sysbios_knl_Queue_destruct                                             
1001c22d  ti_sysbios_knl_Queue_elemClear__E                                         
1001c10f  ti_sysbios_knl_Queue_empty__E                                             
1001c1b1  ti_sysbios_knl_Queue_enqueue__E                                           
1001bf0d  ti_sysbios_knl_Queue_get__E                                               
1001c2d1  ti_sysbios_knl_Queue_head__E                                              
1001c2d5  ti_sysbios_knl_Queue_next__E                                              
1001bf29  ti_sysbios_knl_Queue_put__E                                               
1001c11d  ti_sysbios_knl_Queue_remove__E                                            
000014e8  ti_sysbios_knl_Semaphore_Instance_State_pendQ__O                          
1001c0c1  ti_sysbios_knl_Semaphore_Instance_finalize__E                             
1001bafd  ti_sysbios_knl_Semaphore_Instance_init__E                                 
200021ac  ti_sysbios_knl_Semaphore_Module__root__V                                  
000012d0  ti_sysbios_knl_Semaphore_Object__DESC__C                                  
000011ac  ti_sysbios_knl_Semaphore_Object__PARAMS__C                                
1001bb21  ti_sysbios_knl_Semaphore_Object__delete__S                                
1001bd85  ti_sysbios_knl_Semaphore_Object__destruct__S                              
1001c1bd  ti_sysbios_knl_Semaphore_Params__init__S                                  
1001b705  ti_sysbios_knl_Semaphore_construct                                        
1001b5a9  ti_sysbios_knl_Semaphore_create                                           
1001c2d9  ti_sysbios_knl_Semaphore_delete                                           
1001c2dd  ti_sysbios_knl_Semaphore_destruct                                         
1001b949  ti_sysbios_knl_Semaphore_pendTimeout__I                                   
1001a001  ti_sysbios_knl_Semaphore_pend__E                                          
1001ac41  ti_sysbios_knl_Semaphore_post__E                                          
1001bf97  ti_sysbios_knl_Swi_Instance_finalize__E                                   
1001aca5  ti_sysbios_knl_Swi_Instance_init__E                                       
20002018  ti_sysbios_knl_Swi_Module_State_0_readyQ__A                               
200021b4  ti_sysbios_knl_Swi_Module__root__V                                        
200001c8  ti_sysbios_knl_Swi_Module__state__V                                       
1001c233  ti_sysbios_knl_Swi_Module_startup__E                                      
000012f0  ti_sysbios_knl_Swi_Object__DESC__C                                        
000010f4  ti_sysbios_knl_Swi_Object__PARAMS__C                                      
000013e0  ti_sysbios_knl_Swi_Object__count__C                                       
1001bda5  ti_sysbios_knl_Swi_Object__delete__S                                      
1001bf45  ti_sysbios_knl_Swi_Object__destruct__S                                    
1001b975  ti_sysbios_knl_Swi_Object__get__S                                         
000013e4  ti_sysbios_knl_Swi_Object__table__C                                       
20002048  ti_sysbios_knl_Swi_Object__table__V                                       
1001c1c9  ti_sysbios_knl_Swi_Params__init__S                                        
1001b085  ti_sysbios_knl_Swi_construct                                              
1001ad05  ti_sysbios_knl_Swi_create                                                 
1001c2e1  ti_sysbios_knl_Swi_delete                                                 
1001c2e5  ti_sysbios_knl_Swi_destruct                                               
1001c0d1  ti_sysbios_knl_Swi_disable__E                                             
1001c0e1  ti_sysbios_knl_Swi_enabled__E                                             
000086b5  ti_sysbios_knl_Swi_getTrigger__E                                          
000013e8  ti_sysbios_knl_Swi_numPriorities__C                                       
00008439  ti_sysbios_knl_Swi_or__E                                                  
1001c2e9  ti_sysbios_knl_Swi_postInit__I                                            
1001b31d  ti_sysbios_knl_Swi_post__E                                                
1001ad61  ti_sysbios_knl_Swi_restoreHwi__E                                          
1001b5dd  ti_sysbios_knl_Swi_restore__E                                             
1001b0d5  ti_sysbios_knl_Swi_runLoop__I                                             
1001afd9  ti_sysbios_knl_Swi_run__I                                                 
1001b031  ti_sysbios_knl_Swi_schedule__I                                            
1001c239  ti_sysbios_knl_Swi_startup__E                                             
200011a0  ti_sysbios_knl_Task_Instance_State_0_stack__A                             
1001a4f9  ti_sysbios_knl_Task_Instance_finalize__E                                  
1001a259  ti_sysbios_knl_Task_Instance_init__E                                      
200021d8  ti_sysbios_knl_Task_Module_State_0_idleTask__A                            
200020c0  ti_sysbios_knl_Task_Module_State_0_readyQ__A                              
000014ec  ti_sysbios_knl_Task_Module_State_inactiveQ__O                             
200021bc  ti_sysbios_knl_Task_Module__root__V                                       
20000100  ti_sysbios_knl_Task_Module__state__V                                      
1001adbd  ti_sysbios_knl_Task_Module_startup__E                                     
00001310  ti_sysbios_knl_Task_Object__DESC__C                                       
00001000  ti_sysbios_knl_Task_Object__PARAMS__C                                     
000013ec  ti_sysbios_knl_Task_Object__count__C                                      
1001bdc5  ti_sysbios_knl_Task_Object__delete__S                                     
1001bf61  ti_sysbios_knl_Task_Object__destruct__S                                   
1001bde5  ti_sysbios_knl_Task_Object__get__S                                        
000013f0  ti_sysbios_knl_Task_Object__table__C                                      
20001f48  ti_sysbios_knl_Task_Object__table__V                                      
1001c1d5  ti_sysbios_knl_Task_Params__init__S                                       
1001c2ed  ti_sysbios_knl_Task_SupportProxy_Module__startupDone__S                   
UNDEFED   ti_sysbios_knl_Task_SupportProxy_Module__startupDone__S__mangled__        
1001c2f1  ti_sysbios_knl_Task_SupportProxy_getStackAlignment__E                     
UNDEFED   ti_sysbios_knl_Task_SupportProxy_getStackAlignment__E__mangled__          
1001c2f5  ti_sysbios_knl_Task_SupportProxy_start__E                                 
UNDEFED   ti_sysbios_knl_Task_SupportProxy_start__E__mangled__                      
1001c2f9  ti_sysbios_knl_Task_SupportProxy_swap__E                                  
UNDEFED   ti_sysbios_knl_Task_SupportProxy_swap__E__mangled__                       
000013f4  ti_sysbios_knl_Task_allBlockedFunc__C                                     
1001b361  ti_sysbios_knl_Task_allBlockedFunction__I                                 
1001b611  ti_sysbios_knl_Task_blockI__E                                             
1001b125  ti_sysbios_knl_Task_construct                                             
1001ae19  ti_sysbios_knl_Task_create                                                
000013f8  ti_sysbios_knl_Task_defaultStackHeap__C                                   
000013fc  ti_sysbios_knl_Task_defaultStackSize__C                                   
1001c2fd  ti_sysbios_knl_Task_delete                                                
1001c301  ti_sysbios_knl_Task_destruct                                              
1001c0f1  ti_sysbios_knl_Task_disable__E                                            
1001c23f  ti_sysbios_knl_Task_enable__E                                             
1001be05  ti_sysbios_knl_Task_enter__I                                              
1001b425  ti_sysbios_knl_Task_exit__E                                               
00001412  ti_sysbios_knl_Task_initStackFlag__C                                      
00001400  ti_sysbios_knl_Task_numConstructedTasks__C                                
1001a611  ti_sysbios_knl_Task_postInit__I                                           
1001b735  ti_sysbios_knl_Task_processVitalTaskFlag__I                               
1001be25  ti_sysbios_knl_Task_restoreHwi__E                                         
1001ba45  ti_sysbios_knl_Task_restore__E                                            
1001b175  ti_sysbios_knl_Task_schedule__I                                           
1001c1e1  ti_sysbios_knl_Task_self__E                                               
1001bf7d  ti_sysbios_knl_Task_sleepTimeout__I                                       
1001a9d9  ti_sysbios_knl_Task_sleep__E                                              
1001ae75  ti_sysbios_knl_Task_startCore__E                                          
1001c305  ti_sysbios_knl_Task_startup__E                                            
1001ca6d  ti_sysbios_knl_Task_swapReturn                                            
1001b9a1  ti_sysbios_knl_Task_unblockI__E                                           
1001bfb1  ti_sysbios_knl_Task_unblock__E                                            
1001b3a5  ti_sysbios_knl_Task_yield__E                                              
00001494  ti_sysbios_rom_ROM_AONRTCChannelEnable                                    
00001498  ti_sysbios_rom_ROM_AONRTCCompareValueSet                                  
0000149c  ti_sysbios_rom_ROM_AONRTCCurrentCompareValueGet                           
000014a0  ti_sysbios_rom_ROM_AONRTCEventClear                                       
000014a4  ti_sysbios_rom_ROM_ti_sysbios_family_arm_cc26xx_Timer_getCount64__E       
000014a8  ti_sysbios_rom_ROM_ti_sysbios_family_arm_cc26xx_Timer_getCurrentTick__E   
000014ac  ti_sysbios_rom_ROM_ti_sysbios_family_arm_cc26xx_Timer_getMaxTicks__E      
000014b0  ti_sysbios_rom_ROM_ti_sysbios_family_arm_cc26xx_Timer_initDevice__I       
000014b4  ti_sysbios_rom_ROM_ti_sysbios_family_arm_cc26xx_Timer_setNextTick__E      
000014b8  ti_sysbios_rom_ROM_ti_sysbios_family_arm_cc26xx_Timer_setThreshold__I     
000014bc  ti_sysbios_rom_ROM_ti_sysbios_family_arm_cc26xx_Timer_start__E            
000014c0  ti_sysbios_rom_ROM_ti_sysbios_family_arm_cc26xx_TimestampProvider_get32__E
000014c4  ti_sysbios_rom_ROM_xdc_runtime_Startup_getState__I                        
000014c8  ti_sysbios_rom_ROM_xdc_runtime_System_SupportProxy_abort__E               
000014cc  ti_sysbios_rom_ROM_xdc_runtime_System_SupportProxy_exit__E                
00007ff3  ti_sysbios_rom_cortexm_cc13xx_CC13xx_badRomRevision__E                    
00008451  ti_sysbios_rom_cortexm_cc13xx_CC13xx_checkRevision__E                     
1001ca97  ti_sysbios_rom_cortexm_cc13xx_CC13xx_getRevision__E                       
20001a78  txTask                                                                    
000067dd  txTaskInit                                                                
000098a8  uartCC26XXHWAttrs                                                         
20001558  uartCC26XXObjects                                                         
20001c44  uartCC26XXRingBuffer                                                      
0000998c  udmaHWAttrs                                                               
20001c64  udmaObjects                                                               
00001428  xdc_runtime_Assert_E_assertFailed__C                                      
1001c5a5  xdc_runtime_Assert_raise__I                                               
1001c6e9  xdc_runtime_Core_assignLabel__I                                           
1001c5ed  xdc_runtime_Core_assignParams__I                                          
1001c635  xdc_runtime_Core_constructObject__I                                       
1001c401  xdc_runtime_Core_createObject__I                                          
1001c4f5  xdc_runtime_Core_deleteObject__I                                          
1001c79d  xdc_runtime_Core_destructObject__I                                        
0000142c  xdc_runtime_Error_E_memory__C                                             
1001c7b5  xdc_runtime_Error_check__E                                                
1001c83d  xdc_runtime_Error_init__E                                                 
00001430  xdc_runtime_Error_policyFxn__C                                            
1001c483  xdc_runtime_Error_policySpin__E                                           
00001490  xdc_runtime_Error_policy__C                                               
1001c765  xdc_runtime_Error_raiseX__E                                               
1001c881  xdc_runtime_Gate_enterSystem__E                                           
1001c875  xdc_runtime_Gate_leaveSystem__E                                           
00001434  xdc_runtime_IGateProvider_Interface__BASE__C                              
00001438  xdc_runtime_IHeap_Interface__BASE__C                                      
0000143c  xdc_runtime_IModule_Interface__BASE__C                                    
UNDEFED   xdc_runtime_Main_Module_GateProxy_Handle__label__S                        
UNDEFED   xdc_runtime_Main_Module_GateProxy_Object__delete__S                       
UNDEFED   xdc_runtime_Main_Module_GateProxy_query__E                                
00001440  xdc_runtime_Main_Module__diagsEnabled__C                                  
00001444  xdc_runtime_Main_Module__diagsIncluded__C                                 
00001448  xdc_runtime_Main_Module__diagsMask__C                                     
00001488  xdc_runtime_Main_Module__id__C                                            
1001bc85  xdc_runtime_Memory_HeapProxy_Handle__label__S                             
UNDEFED   xdc_runtime_Memory_HeapProxy_Handle__label__S__mangled__                  
1001bca5  xdc_runtime_Memory_HeapProxy_Object__delete__S                            
UNDEFED   xdc_runtime_Memory_HeapProxy_Object__delete__S__mangled__                 
1001c885  xdc_runtime_Memory_HeapProxy_alloc__E                                     
1001c889  xdc_runtime_Memory_HeapProxy_free__E                                      
0000148a  xdc_runtime_Memory_Module__id__C                                          
20000200  xdc_runtime_Memory_Module__state__V                                       
1001c485  xdc_runtime_Memory_alloc__E                                               
1001c849  xdc_runtime_Memory_calloc__E                                              
0000144c  xdc_runtime_Memory_defaultHeapInstance__C                                 
1001c7fd  xdc_runtime_Memory_free__E                                                
1001c855  xdc_runtime_Memory_getMaxDefaultTypeAlign__E                              
1001c781  xdc_runtime_Memory_valloc__E                                              
200001f0  xdc_runtime_Startup_Module__state__V                                      
00000001  xdc_runtime_Startup__EXECFXN__C                                           
00000001  xdc_runtime_Startup__RESETFXN__C                                          
00001450  xdc_runtime_Startup_execImpl__C                                           
1001c555  xdc_runtime_Startup_exec__E                                               
0000855f  xdc_runtime_Startup_exec__I                                               
00009978  xdc_runtime_Startup_firstFxns__A                                          
00001418  xdc_runtime_Startup_firstFxns__C                                          
00006bf1  xdc_runtime_Startup_getState__I                                           
00001420  xdc_runtime_Startup_lastFxns__C                                           
00001454  xdc_runtime_Startup_maxPasses__C                                          
000086c1  xdc_runtime_Startup_reset__I                                              
000086cd  xdc_runtime_Startup_rtsDone__E                                            
00009924  xdc_runtime_Startup_sfxnRts__A                                            
00001458  xdc_runtime_Startup_sfxnRts__C                                            
00009844  xdc_runtime_Startup_sfxnTab__A                                            
0000145c  xdc_runtime_Startup_sfxnTab__C                                            
00001460  xdc_runtime_Startup_startModsFxn__C                                       
1001c309  xdc_runtime_Startup_startMods__I                                          
00001464  xdc_runtime_SysCallback_abortFxn__C                                       
1001c80d  xdc_runtime_SysCallback_abort__E                                          
0000823f  xdc_runtime_SysCallback_defaultAbort                                      
000084ab  xdc_runtime_SysCallback_defaultExit                                       
0000871f  xdc_runtime_SysCallback_defaultPutch                                      
00008791  xdc_runtime_SysCallback_defaultReady                                      
00001468  xdc_runtime_SysCallback_exitFxn__C                                        
1001c81d  xdc_runtime_SysCallback_exit__E                                           
000099a4  xdc_runtime_SysCallback_putchFxn__C                                       
000085e1  xdc_runtime_SysCallback_putch__E                                          
000099a8  xdc_runtime_SysCallback_readyFxn__C                                       
000085f1  xdc_runtime_SysCallback_ready__E                                          
1001bbe5  xdc_runtime_System_Module_GateProxy_Handle__label__S                      
UNDEFED   xdc_runtime_System_Module_GateProxy_Handle__label__S__mangled__           
1001bc05  xdc_runtime_System_Module_GateProxy_Object__delete__S                     
UNDEFED   xdc_runtime_System_Module_GateProxy_Object__delete__S__mangled__          
1001c88d  xdc_runtime_System_Module_GateProxy_enter__E                              
1001c891  xdc_runtime_System_Module_GateProxy_leave__E                              
1001c265  xdc_runtime_System_Module_GateProxy_query__E                              
UNDEFED   xdc_runtime_System_Module_GateProxy_query__E__mangled__                   
200001f8  xdc_runtime_System_Module__state__V                                       
1001c87b  xdc_runtime_System_Module_startup__E                                      
UNDEFED   xdc_runtime_System_SupportProxy_abort__E                                  
UNDEFED   xdc_runtime_System_SupportProxy_exit__E                                   
000085e1  xdc_runtime_System_SupportProxy_putch__E                                  
000085f1  xdc_runtime_System_SupportProxy_ready__E                                  
0000146c  xdc_runtime_System_abortFxn__C                                            
1001c895  xdc_runtime_System_abortSpin__E                                           
1001c745  xdc_runtime_System_abort__E                                               
1001c67d  xdc_runtime_System_atexit__E                                              
000018a9  xdc_runtime_System_doPrint__I                                             
00001470  xdc_runtime_System_exitFxn__C                                             
1001c897  xdc_runtime_System_exitSpin__E                                            
1001c7cd  xdc_runtime_System_exit__E                                                
000099ac  xdc_runtime_System_extendFxn__C                                           
00006355  xdc_runtime_System_formatNum__I                                           
00001474  xdc_runtime_System_maxAtexitHandlers__C                                   
00003385  xdc_runtime_System_printfExtend__I                                        
1001c6b5  xdc_runtime_System_processAtExit__E                                       
00007de1  xdc_runtime_System_putchar__I                                             
0000820d  xdc_runtime_System_snprintf__E                                            
00008795  xdc_runtime_System_snprintf_va__F                                         
00008601  xdc_runtime_System_vsnprintf__E                                           
0000148c  xdc_runtime_Text_charCnt__C                                               
00009947  xdc_runtime_Text_charTab__A                                               
00001478  xdc_runtime_Text_charTab__C                                               
1001c719  xdc_runtime_Text_cordText__E                                              
0000148e  xdc_runtime_Text_isLoaded__C                                              
0000147c  xdc_runtime_Text_nameEmpty__C                                             
00001480  xdc_runtime_Text_nameStatic__C                                            
00001484  xdc_runtime_Text_nameUnknown__C                                           
1001c7e5  xdc_runtime_Text_ropeText__E                                              
1001c82d  xdc_runtime_Timestamp_SupportProxy_get32__E                               
0000863b  xdc_runtime_Timestamp_SupportProxy_get32__E__mangled__                    
1001b9cd  xdc_runtime_Timestamp_SupportProxy_get64__E                               
UNDEFED   xdc_runtime_Timestamp_SupportProxy_get64__E__mangled__                    
1001c12b  xdc_runtime_Timestamp_SupportProxy_getFreq__E                             
UNDEFED   xdc_runtime_Timestamp_SupportProxy_getFreq__E__mangled__                  
1001c82d  xdc_runtime_Timestamp_get32__E                                            
UNDEFED   xdc_runtime_Timestamp_get32__E                                            
1001b9cd  xdc_runtime_Timestamp_get64__E                                            
UNDEFED   xdc_runtime_Timestamp_get64__E                                            
1001c12b  xdc_runtime_Timestamp_getFreq__E                                          
UNDEFED   xdc_runtime_Timestamp_getFreq__E                                          


GLOBAL SYMBOLS: SORTED BY Symbol Address 

address   name                                                                      
-------   ----                                                                      
00000000  __ASM__                                                                   
00000000  ti_sysbios_family_arm_m3_Hwi_resetVectors                                 
00000001  xdc_runtime_Startup__EXECFXN__C                                           
00000001  xdc_runtime_Startup__RESETFXN__C                                          
00000040  __TI_static_base__                                                        
00000085  __ISA__                                                                   
00000097  __PLAT__                                                                  
000000be  __TARG__                                                                  
000000e3  __TRDR__                                                                  
00000280  __TI_Handler_Table_Base                                                   
0000028c  __TI_Handler_Table_Limit                                                  
000002e0  __TI_CINIT_Base                                                           
00000300  __STACK_SIZE                                                              
00000360  __TI_CINIT_Limit                                                          
00001000  ti_sysbios_knl_Task_Object__PARAMS__C                                     
0000103c  ti_sysbios_knl_Mailbox_Object__PARAMS__C                                  
00001070  ti_sysbios_family_arm_m3_Hwi_Object__PARAMS__C                            
000010a0  ti_sysbios_hal_Hwi_Object__PARAMS__C                                      
000010cc  ti_sysbios_heaps_HeapMem_Module__FXNS__C                                  
000010f4  ti_sysbios_knl_Swi_Object__PARAMS__C                                      
0000111c  ti_sysbios_gates_GateHwi_Module__FXNS__C                                  
00001140  ti_sysbios_gates_GateMutex_Module__FXNS__C                                
00001164  ti_sysbios_heaps_HeapMem_Object__PARAMS__C                                
00001188  ti_sysbios_knl_Clock_Object__PARAMS__C                                    
000011ac  ti_sysbios_knl_Semaphore_Object__PARAMS__C                                
000011d0  ti_sysbios_family_arm_m3_Hwi_Object__DESC__C                              
000011f0  ti_sysbios_gates_GateHwi_Object__DESC__C                                  
00001210  ti_sysbios_gates_GateMutex_Object__DESC__C                                
00001230  ti_sysbios_hal_Hwi_Object__DESC__C                                        
00001250  ti_sysbios_heaps_HeapMem_Object__DESC__C                                  
00001270  ti_sysbios_knl_Clock_Object__DESC__C                                      
00001290  ti_sysbios_knl_Mailbox_Object__DESC__C                                    
000012b0  ti_sysbios_knl_Queue_Object__DESC__C                                      
000012d0  ti_sysbios_knl_Semaphore_Object__DESC__C                                  
000012f0  ti_sysbios_knl_Swi_Object__DESC__C                                        
00001310  ti_sysbios_knl_Task_Object__DESC__C                                       
00001330  ti_sysbios_gates_GateHwi_Object__PARAMS__C                                
00001348  ti_sysbios_gates_GateMutex_Object__PARAMS__C                              
00001360  ti_sysbios_knl_Queue_Object__PARAMS__C                                    
00001378  ti_sysbios_knl_Idle_funcList__C                                           
00001384  ti_sysbios_family_arm_cc26xx_Timer_startupNeeded__C                       
00001388  ti_sysbios_family_arm_m3_Hwi_E_alreadyDefined__C                          
0000138c  ti_sysbios_family_arm_m3_Hwi_E_hwiLimitExceeded__C                        
00001390  ti_sysbios_family_arm_m3_Hwi_NUM_INTERRUPTS__C                            
00001394  ti_sysbios_family_arm_m3_Hwi_Object__count__C                             
00001398  ti_sysbios_family_arm_m3_Hwi_Object__table__C                             
0000139c  ti_sysbios_family_arm_m3_Hwi_ccr__C                                       
000013a0  ti_sysbios_family_arm_m3_Hwi_excHandlerFunc__C                            
000013a4  ti_sysbios_family_arm_m3_Hwi_nullIsrFunc__C                               
000013a8  ti_sysbios_family_arm_m3_Hwi_numSparseInterrupts__C                       
000013ac  ti_sysbios_family_arm_m3_Hwi_priGroup__C                                  
000013b0  ti_sysbios_family_arm_m3_TaskSupport_stackAlignment__C                    
000013b4  ti_sysbios_heaps_HeapMem_E_memory__C                                      
000013b8  ti_sysbios_heaps_HeapMem_Module__gateObj__C                               
000013bc  ti_sysbios_heaps_HeapMem_Object__count__C                                 
000013c0  ti_sysbios_heaps_HeapMem_Object__table__C                                 
000013c4  ti_sysbios_heaps_HeapMem_reqAlign__C                                      
000013c8  ti_sysbios_knl_Clock_serviceMargin__C                                     
000013cc  ti_sysbios_knl_Mailbox_Object__count__C                                   
000013d0  ti_sysbios_knl_Mailbox_Object__table__C                                   
000013d4  ti_sysbios_knl_Mailbox_maxTypeAlign__C                                    
000013d8  ti_sysbios_knl_Queue_Object__count__C                                     
000013dc  ti_sysbios_knl_Queue_Object__table__C                                     
000013e0  ti_sysbios_knl_Swi_Object__count__C                                       
000013e4  ti_sysbios_knl_Swi_Object__table__C                                       
000013e8  ti_sysbios_knl_Swi_numPriorities__C                                       
000013ec  ti_sysbios_knl_Task_Object__count__C                                      
000013f0  ti_sysbios_knl_Task_Object__table__C                                      
000013f4  ti_sysbios_knl_Task_allBlockedFunc__C                                     
000013f8  ti_sysbios_knl_Task_defaultStackHeap__C                                   
000013fc  ti_sysbios_knl_Task_defaultStackSize__C                                   
00001400  ti_sysbios_knl_Task_numConstructedTasks__C                                
00001406  ti_sysbios_family_arm_cc26xx_Timer_Module__id__C                          
00001408  ti_sysbios_family_arm_cc26xx_TimestampProvider_useClockTimer__C           
0000140a  ti_sysbios_family_arm_m3_Hwi_Module__id__C                                
0000140c  ti_sysbios_gates_GateHwi_Module__id__C                                    
0000140e  ti_sysbios_gates_GateMutex_Module__id__C                                  
00001410  ti_sysbios_heaps_HeapMem_Module__id__C                                    
00001412  ti_sysbios_knl_Task_initStackFlag__C                                      
00001414  ti_sysbios_knl_Clock_tickMode__C                                          
00001418  xdc_runtime_Startup_firstFxns__C                                          
00001420  xdc_runtime_Startup_lastFxns__C                                           
00001428  xdc_runtime_Assert_E_assertFailed__C                                      
0000142c  xdc_runtime_Error_E_memory__C                                             
00001430  xdc_runtime_Error_policyFxn__C                                            
00001434  xdc_runtime_IGateProvider_Interface__BASE__C                              
00001438  xdc_runtime_IHeap_Interface__BASE__C                                      
0000143c  xdc_runtime_IModule_Interface__BASE__C                                    
00001440  xdc_runtime_Main_Module__diagsEnabled__C                                  
00001444  xdc_runtime_Main_Module__diagsIncluded__C                                 
00001448  xdc_runtime_Main_Module__diagsMask__C                                     
0000144c  xdc_runtime_Memory_defaultHeapInstance__C                                 
00001450  xdc_runtime_Startup_execImpl__C                                           
00001454  xdc_runtime_Startup_maxPasses__C                                          
00001458  xdc_runtime_Startup_sfxnRts__C                                            
0000145c  xdc_runtime_Startup_sfxnTab__C                                            
00001460  xdc_runtime_Startup_startModsFxn__C                                       
00001464  xdc_runtime_SysCallback_abortFxn__C                                       
00001468  xdc_runtime_SysCallback_exitFxn__C                                        
0000146c  xdc_runtime_System_abortFxn__C                                            
00001470  xdc_runtime_System_exitFxn__C                                             
00001474  xdc_runtime_System_maxAtexitHandlers__C                                   
00001478  xdc_runtime_Text_charTab__C                                               
0000147c  xdc_runtime_Text_nameEmpty__C                                             
00001480  xdc_runtime_Text_nameStatic__C                                            
00001484  xdc_runtime_Text_nameUnknown__C                                           
00001488  xdc_runtime_Main_Module__id__C                                            
0000148a  xdc_runtime_Memory_Module__id__C                                          
0000148c  xdc_runtime_Text_charCnt__C                                               
0000148e  xdc_runtime_Text_isLoaded__C                                              
00001490  xdc_runtime_Error_policy__C                                               
00001494  ti_sysbios_rom_ROM_AONRTCChannelEnable                                    
00001498  ti_sysbios_rom_ROM_AONRTCCompareValueSet                                  
0000149c  ti_sysbios_rom_ROM_AONRTCCurrentCompareValueGet                           
000014a0  ti_sysbios_rom_ROM_AONRTCEventClear                                       
000014a4  ti_sysbios_rom_ROM_ti_sysbios_family_arm_cc26xx_Timer_getCount64__E       
000014a8  ti_sysbios_rom_ROM_ti_sysbios_family_arm_cc26xx_Timer_getCurrentTick__E   
000014ac  ti_sysbios_rom_ROM_ti_sysbios_family_arm_cc26xx_Timer_getMaxTicks__E      
000014b0  ti_sysbios_rom_ROM_ti_sysbios_family_arm_cc26xx_Timer_initDevice__I       
000014b4  ti_sysbios_rom_ROM_ti_sysbios_family_arm_cc26xx_Timer_setNextTick__E      
000014b8  ti_sysbios_rom_ROM_ti_sysbios_family_arm_cc26xx_Timer_setThreshold__I     
000014bc  ti_sysbios_rom_ROM_ti_sysbios_family_arm_cc26xx_Timer_start__E            
000014c0  ti_sysbios_rom_ROM_ti_sysbios_family_arm_cc26xx_TimestampProvider_get32__E
000014c4  ti_sysbios_rom_ROM_xdc_runtime_Startup_getState__I                        
000014c8  ti_sysbios_rom_ROM_xdc_runtime_System_SupportProxy_abort__E               
000014cc  ti_sysbios_rom_ROM_xdc_runtime_System_SupportProxy_exit__E                
000014d0  ti_sysbios_gates_GateMutex_Instance_State_sem__O                          
000014d4  ti_sysbios_knl_Clock_Module_State_clockQ__O                               
000014d8  ti_sysbios_knl_Mailbox_Instance_State_dataQue__O                          
000014dc  ti_sysbios_knl_Mailbox_Instance_State_dataSem__O                          
000014e0  ti_sysbios_knl_Mailbox_Instance_State_freeQue__O                          
000014e4  ti_sysbios_knl_Mailbox_Instance_State_freeSem__O                          
000014e8  ti_sysbios_knl_Semaphore_Instance_State_pendQ__O                          
000014ec  ti_sysbios_knl_Task_Module_State_inactiveQ__O                             
000018a9  xdc_runtime_System_doPrint__I                                             
00001be5  GrStringDraw                                                              
00002155  NOROM_SysCtrlSetRechargeBeforePowerDown                                   
0000237d  Power_sleep                                                               
000025a5  __aeabi_uldivmod                                                          
00002985  RF_postCmd                                                                
00002b61  PIN_init                                                                  
00002d25  __aeabi_dsub                                                              
00002d2f  __aeabi_dadd                                                              
00002edb  DisplayUart_clear                                                         
00002edd  PowerCC26XX_doCalibrate                                                   
0000307d  UARTCC26XX_open                                                           
00003385  xdc_runtime_System_printfExtend__I                                        
0000364d  SPICC26XXDMA_open                                                         
00003795  DisplaySharp_open                                                         
000038d5  NOROM_SetupAfterColdResetWakeupFromShutDownCfg3                           
00003a05  Power_init                                                                
00003d81  UARTCC26XX_read                                                           
00003fb5  UARTCC26XX_hwiIntFxn                                                      
000041c5  UARTCC26XX_write                                                          
000042c1  __aeabi_dmul                                                              
000044b1  NOROM_SetupAfterColdResetWakeupFromShutDownCfg2                           
000045a1  SPICC26XXDMA_transferCancel                                               
00004777  DisplaySharp_put5                                                         
00004857  DisplayUart_clearLines                                                    
00004939  NOROM_RFCRTrim                                                            
00004a11  NOROM_RFCRfTrimRead                                                       
00004ae5  PowerCC26XX_standbyPolicy                                                 
00004bb9  Power_releaseDependency                                                   
00004c8d  SPICC26XXDMA_control                                                      
00004d61  DisplaySharp_control                                                      
00004e31  Power_setDependency                                                       
00004f01  RF_open                                                                   
00005095  main                                                                      
0000539d  SPICC26XXDMA_transfer                                                     
000054f9  NOROM_SetupTrimDevice                                                     
000054f9  ti_sysbios_family_arm_cc26xx_Boot_trimDevice                              
000055a1  NOROM_SetupAfterColdResetWakeupFromShutDownCfg1                           
000056e9  __TI_auto_init                                                            
00005789  __aeabi_memcpy                                                            
00005789  __aeabi_memcpy4                                                           
00005789  __aeabi_memcpy8                                                           
00005789  memcpy                                                                    
00005825  ti_sysbios_knl_Clock_workFuncDynamic__E                                   
000058bd  PIN_open                                                                  
00005b01  UARTCC26XX_writeCancel                                                    
00005c19  GrRectFill                                                                
00005d29  __aeabi_cdcmpeq                                                           
00005d29  __aeabi_cdcmple                                                           
00005daf  __aeabi_cdrcmple                                                          
00005eb9  RF_pendCmd                                                                
00005f39  __aeabi_memclr                                                            
00005f39  __aeabi_memclr4                                                           
00005f39  __aeabi_memclr8                                                           
00005f3b  __aeabi_memset                                                            
00005f3b  __aeabi_memset4                                                           
00005f3b  __aeabi_memset8                                                           
00005f41  memset                                                                    
00005fb5  UARTCC26XX_close                                                          
0000602d  NOROM_SetupSetVddrLevel                                                   
000060a1  PowerCC26XX_auxISR                                                        
000061fd  ti_sysbios_family_arm_cc26xx_Timer_start__E                               
000062e5  NOROM_ChipInfo_GetHwRevision                                              
00006355  xdc_runtime_System_formatNum__I                                           
000063c5  NOROM_SetupGetTrimForAmpcompCtrl                                          
00006431  PIN_add                                                                   
0000649d  PowerCC26XX_calibrate                                                     
00006509  UARTCC26XX_readCancel                                                     
00006575  NOROM_SetupGetTrimForAnabypassValue1                                      
000065dd  NOROM_SysCtrl_DCDC_VoltageConditionalControl                              
00006645  RF_getCurrentTime                                                         
000066ad  __TI_decompress_lzss                                                      
00006715  NOROM_OSCHF_AttemptToSwitchToXosc                                         
00006779  UARTCC26XX_control                                                        
000067dd  txTaskInit                                                                
00006841  DisplaySharp_clearLines                                                   
000068a1  NOROM_OSCClockSourceSet                                                   
00006901  PowerCC26XX_RCOSC_clockFunc                                               
00006a81  NOROM_SysCtrlAdjustRechargeAfterPowerDown                                 
00006add  PIN_remove                                                                
00006b39  UDMACC26XX_open                                                           
00006bf1  xdc_runtime_Startup_getState__I                                           
00006c4d  SPICC26XXDMA_close                                                        
00006ca7  DisplayUart_put5                                                          
00006cff  __aeabi_idiv0                                                             
00006d01  PowerCC26XX_initiateCalibration                                           
00006f01  NOROM_SetupSetCacheModeAccordingToCcfgSetting                             
00006ff1  GrLineDrawH                                                               
0000703f  DisplayUart_open                                                          
0000708b  ti_sysbios_BIOS_linkedWithIncorrectBootLibrary__E                         
000070d9  copy_in                                                                   
00007125  srand                                                                     
0000713b  rand                                                                      
000071bd  DisplaySharp_close                                                        
00007251  Display_doOpen                                                            
00007299  NOROM_ChipInfo_GetChipFamily                                              
000072e1  PIN_setOutputEnable                                                       
00007371  RF_runCmd                                                                 
00007401  __aeabi_d2iz                                                              
00007449  RingBuf_put                                                               
000074d5  ResetISR                                                                  
000074d5  _c_int00                                                                  
00007519  __aeabi_d2uiz                                                             
0000759f  RingBuf_get                                                               
000075df  __aeabi_uidiv                                                             
000075df  __aeabi_uidivmod                                                          
0000761f  ti_sysbios_BIOS_nullFunc__I                                               
00007621  NOROM_OSC_HPOSCRelativeFrequencyOffsetGet                                 
0000765d  NOROM_RFCSynthPowerDown                                                   
00007699  PINCC26XX_getConfig                                                       
000076d5  PIN_setOutputValue                                                        
0000774d  UARTCC26XX_swiIntFxn                                                      
00007789  PIN_setInterrupt                                                          
000077f9  __aeabi_f2d                                                               
00007831  ti_sysbios_family_arm_cc26xx_Timer_getCurrentTick__E                      
000078a1  UDMACC26XX_close                                                          
0000790d  NOROM_OSCHF_SwitchToRcOscTurnOffXosc                                      
00007941  PIN_setConfig                                                             
000079dd  ti_sysbios_family_arm_cc26xx_Timer_initDevice__I                          
00007a11  DisplaySharp_clear                                                        
00007a43  ti_sysbios_family_arm_cc26xx_Timer_setNextTick__E                         
00007a75  NOROM_SetupSetAonRtcSubSecInc                                             
00007aa5  Power_releaseConstraint                                                   
00007ad5  Power_setConstraint                                                       
00007b05  SPI_open                                                                  
00007b35  UART_open                                                                 
00007b95  ti_sysbios_BIOS_atExitFunc__I                                             
00007bc5  ti_sysbios_BIOS_startFunc__I                                              
00007bf5  ti_sysbios_family_arm_cc26xx_Timer_setThreshold__I                        
00007c53  __aeabi_i2d                                                               
00007c81  NOROM_DDI32RegWrite                                                       
00007cad  NOROM_OSCClockSourceGet                                                   
00007cd9  NOROM_SetupGetTrimForRadcExtCfg                                           
00007d05  PINCC26XX_setMux                                                          
00007d31  SharpGrLib_init                                                           
00007d5d  buttonCallbackFunction                                                    
00007db5  ti_sysbios_knl_Clock_getTicksUntilInterrupt__E                            
00007de1  xdc_runtime_System_putchar__I                                             
00007e0b  ti_sysbios_knl_Clock_triggerFunc__I                                       
00007e0d  NOROM_AONBatMonTemperatureGetDegC                                         
00007e35  Power_registerNotify                                                      
00007e85  SafeHapiVoid                                                              
00007ead  Display_doPut5                                                            
00007ed3  List_put                                                                  
00007ef9  PINCC26XX_getPinCount                                                     
00007f65  ti_sysbios_BIOS_registerRTSLock__I                                        
00007f89  ti_sysbios_BIOS_removeRTSLock__I                                          
00007fad  ti_sysbios_family_arm_cc26xx_Timer_getMaxTicks__E                         
00007fd1  GrContextInit                                                             
00007ff3  ti_sysbios_rom_cortexm_cc13xx_CC13xx_badRomRevision__E                    
00007ff5  NOROM_RFCAdi3VcoLdoVoltageMode                                            
00008015  NOROM_RFCDoorbellSendTo                                                   
00008035  NOROM_SetupGetTrimForXoscHfCtl                                            
00008055  Power_unregisterNotify                                                    
00008095  ti_sysbios_BIOS_rtsLock__I                                                
000080b5  ti_sysbios_family_arm_cc26xx_Timer_dynamicStub__E                         
000080d5  ti_sysbios_knl_Clock_stop__E                                              
000080f5  PIN_close                                                                 
00008113  Power_getTransitionLatency                                                
00008131  NOROM_SetupGetTrimForAmpcompTh2                                           
0000814d  NOROM_SetupGetTrimForRcOscLfRtuneCtuneTrim                                
000081d9  List_remove                                                               
000081f3  NumLeadingZeros                                                           
0000820d  xdc_runtime_System_snprintf__E                                            
00008227  DisplayUart_close                                                         
0000823f  xdc_runtime_SysCallback_defaultAbort                                      
00008241  NOROM_AONRTCCurrentCompareValueGet                                        
00008259  NOROM_ChipInfo_GetPackageType                                             
00008271  NOROM_OSCHF_TurnOnXosc                                                    
00008289  NOROM_RFCCpeIntGetAndClear                                                
000082a1  NOROM_SetupGetTrimForAdcShModeEn                                          
000082b9  NOROM_SetupGetTrimForAdcShVbufEn                                          
000082d1  NOROM_SetupGetTrimForAmpcompTh1                                           
000082e9  NOROM_SetupGetTrimForDblrLoopFilterResetVoltage                           
00008301  NOROM_SetupGetTrimForRcOscLfIBiasTrim                                     
00008319  NOROM_SetupGetTrimForXoscLfRegulatorAndCmirrwrRatio                       
00008331  PIN_getConfig                                                             
00008349  Power_idleFunc                                                            
00008379  UARTCC26XX_init                                                           
00008391  UART_Params_init                                                          
000083c1  reverse                                                                   
000083d9  _args_main                                                                
000083f1  __aeabi_lmul                                                              
00008421  ti_sysbios_BIOS_rtsUnlock__I                                              
00008439  ti_sysbios_knl_Swi_or__E                                                  
00008451  ti_sysbios_rom_cortexm_cc13xx_CC13xx_checkRevision__E                     
00008469  NOROM_ThisCodeIsBuiltForCC13xxHwRev20AndLater_HaltIfViolated              
0000847f  ti_sysbios_BIOS_exitFunc__I                                               
000084ab  xdc_runtime_SysCallback_defaultExit                                       
000084ad  NOROM_AONRTCCurrent64BitValueGet                                          
000084c1  PIN_getInputValue                                                         
000084d5  PIN_getOutputValue                                                        
000084e9  RF_Params_init                                                            
000084fd  SPI_Params_init                                                           
00008511  _register_unlock                                                          
00008517  _register_lock                                                            
0000851f  _nop                                                                      
00008525  strlen                                                                    
00008539  ti_sysbios_knl_Clock_doTick__I                                            
0000854d  RingBuf_construct                                                         
0000855f  xdc_runtime_Startup_exec__I                                               
00008581  NOROM_RFCRfTrimSet                                                        
00008591  NOROM_SetupGetTrimForXoscHfFastStart                                      
000085a1  NOROM_SetupGetTrimForXoscHfIbiastherm                                     
000085c1  ti_sysbios_family_arm_m3_Hwi_post__E                                      
000085c1  ti_sysbios_hal_Hwi_HwiProxy_post__E                                       
000085c1  ti_sysbios_hal_Hwi_post__E                                                
000085e1  xdc_runtime_SysCallback_putch__E                                          
000085e1  xdc_runtime_System_SupportProxy_putch__E                                  
000085f1  xdc_runtime_SysCallback_ready__E                                          
000085f1  xdc_runtime_System_SupportProxy_ready__E                                  
00008601  xdc_runtime_System_vsnprintf__E                                           
00008611  NOROM_VIMSModeGet                                                         
0000861f  SPICC26XXDMA_init                                                         
0000862d  __TI_decompress_none                                                      
0000863b  ti_sysbios_family_arm_cc26xx_TimestampProvider_get32__E                   
0000863b  xdc_runtime_Timestamp_SupportProxy_get32__E__mangled__                    
00008655  NOROM_CPUcpsid                                                            
00008661  NOROM_CPUcpsie                                                            
0000866d  PIN_registerIntCb                                                         
00008679  Power_getConstraintMask                                                   
00008685  Power_getDependencyCount                                                  
00008691  __TI_zero_init                                                            
000086b5  ti_sysbios_knl_Swi_getTrigger__E                                          
000086c1  xdc_runtime_Startup_reset__I                                              
000086cd  xdc_runtime_Startup_rtsDone__E                                            
000086d9  List_empty                                                                
000086e3  SPI_close                                                                 
000086ed  SPI_transfer                                                              
00008701  UART_close                                                                
0000870b  UART_write                                                                
00008715  UDMACC26XX_hwiIntFxn                                                      
0000871f  xdc_runtime_SysCallback_defaultPutch                                      
00008721  DisplaySharp_getType                                                      
00008749  DisplayUart_control                                                       
0000874f  DisplayUart_getType                                                       
00008755  Display_doParamsInit                                                      
0000875b  NOROM_CPUdelay                                                            
00008761  UARTCC26XX_readPolling                                                    
00008767  UARTCC26XX_writePolling                                                   
00008773  ti_sysbios_family_arm_m3_Hwi_setFunc__E                                   
00008779  HwiP_disable                                                              
0000877d  List_head                                                                 
00008781  List_next                                                                 
0000878d  ti_sysbios_family_arm_cc26xx_Timer_getCount64__E                          
00008791  xdc_runtime_SysCallback_defaultReady                                      
00008795  xdc_runtime_System_snprintf_va__F                                         
00009538  g_sFontFixed6x8                                                           
00009600  SPICC26XXDMA_fxnTable                                                     
00009654  resourceDB                                                                
00009728  spiCC26XXDMAHWAttrs                                                       
00009760  BoardGpioInitTable                                                        
0000978c  UARTCC26XX_fxnTable                                                       
000097b4  Display_config                                                            
000097d8  SPI_config                                                                
000097fc  UART_defaultParams                                                        
00009820  DisplaySharp_fxnTable                                                     
00009844  xdc_runtime_Startup_sfxnTab__A                                            
00009868  SPI_defaultParams                                                         
00009888  g_sharpFxns                                                               
000098a8  uartCC26XXHWAttrs                                                         
000098c8  DisplayUart_fxnTable                                                      
000098e4  UART_config                                                               
000098fc  displayUartHWAttrs                                                        
00009924  xdc_runtime_Startup_sfxnRts__A                                            
00009946  Display_defaultParams                                                     
00009947  xdc_runtime_Text_charTab__A                                               
00009948  PowerCC26XX_config                                                        
00009958  UDMACC26XX_config                                                         
00009968  displaySharpHWattrs                                                       
00009978  xdc_runtime_Startup_firstFxns__A                                          
00009984  PINCC26XX_hwAttrs                                                         
0000998c  udmaHWAttrs                                                               
00009994  RFCC26XX_hwAttrs                                                          
00009998  ti_sysbios_knl_Clock_tickPeriod__C                                        
0000999c  ti_sysbios_knl_Clock_triggerClock__C                                      
000099a0  ti_sysbios_knl_Idle_funcList__A                                           
000099a4  xdc_runtime_SysCallback_putchFxn__C                                       
000099a8  xdc_runtime_SysCallback_readyFxn__C                                       
000099ac  xdc_runtime_System_extendFxn__C                                           
0001ffa8  __ccfg                                                                    
1001a001  ti_sysbios_knl_Semaphore_pend__E                                          
1001a0cd  ti_sysbios_knl_Mailbox_Instance_init__E                                   
1001a195  ti_sysbios_heaps_HeapMem_alloc__E                                         
1001a259  ti_sysbios_knl_Task_Instance_init__E                                      
1001a315  ti_sysbios_family_arm_m3_Hwi_postInit__I                                  
1001a3c5  ti_sysbios_family_arm_m3_Hwi_Instance_init__E                             
1001a465  ti_sysbios_family_arm_cc26xx_Timer_periodicStub__E                        
1001a4f9  ti_sysbios_knl_Task_Instance_finalize__E                                  
1001a58d  ti_sysbios_knl_Mailbox_post__E                                            
1001a611  ti_sysbios_knl_Task_postInit__I                                           
1001a695  ti_sysbios_family_arm_m3_Hwi_initNVIC__E                                  
1001a715  ti_sysbios_knl_Clock_startI__E                                            
1001a791  ti_sysbios_heaps_HeapMem_free__E                                          
1001a809  ti_sysbios_knl_Clock_walkQueueDynamic__E                                  
1001a881  ti_sysbios_knl_Clock_workFunc__E                                          
1001a8f9  ti_sysbios_knl_Mailbox_Instance_finalize__E                               
1001a969  ti_sysbios_knl_Mailbox_pend__E                                            
1001a9d9  ti_sysbios_knl_Task_sleep__E                                              
1001aa49  ti_sysbios_family_arm_m3_Hwi_dispatchC__I                                 
1001aab1  ti_sysbios_family_arm_m3_Hwi_Object__create__S                            
1001ab15  ti_sysbios_family_arm_m3_Hwi_create                                       
1001ab79  ti_sysbios_hal_Hwi_create                                                 
1001abdd  ti_sysbios_knl_Mailbox_create                                             
1001ac41  ti_sysbios_knl_Semaphore_post__E                                          
1001aca5  ti_sysbios_knl_Swi_Instance_init__E                                       
1001ad05  ti_sysbios_knl_Swi_create                                                 
1001ad61  ti_sysbios_knl_Swi_restoreHwi__E                                          
1001adbd  ti_sysbios_knl_Task_Module_startup__E                                     
1001ae19  ti_sysbios_knl_Task_create                                                
1001ae75  ti_sysbios_knl_Task_startCore__E                                          
1001aed1  ti_sysbios_family_arm_m3_Hwi_Instance_finalize__E                         
1001af29  ti_sysbios_family_arm_m3_Hwi_construct                                    
1001af81  ti_sysbios_knl_Mailbox_construct                                          
1001afd9  ti_sysbios_knl_Swi_run__I                                                 
1001b031  ti_sysbios_knl_Swi_schedule__I                                            
1001b085  ti_sysbios_knl_Swi_construct                                              
1001b0d5  ti_sysbios_knl_Swi_runLoop__I                                             
1001b125  ti_sysbios_knl_Task_construct                                             
1001b175  ti_sysbios_knl_Task_schedule__I                                           
1001b1c1  ti_sysbios_family_arm_m3_Hwi_Module_startup__E                            
1001b209  ti_sysbios_heaps_HeapMem_getStats__E                                      
1001b251  ti_sysbios_family_arm_m3_Hwi_disableInterrupt__E                          
1001b295  ti_sysbios_family_arm_m3_Hwi_enableInterrupt__E                           
1001b2d9  ti_sysbios_knl_Mailbox_Module_startup__E                                  
1001b31d  ti_sysbios_knl_Swi_post__E                                                
1001b361  ti_sysbios_knl_Task_allBlockedFunction__I                                 
1001b3a5  ti_sysbios_knl_Task_yield__E                                              
1001b3e9  ti_sysbios_knl_Clock_create                                               
1001b425  ti_sysbios_knl_Task_exit__E                                               
1001b45f  ti_sysbios_gates_GateHwi_Instance_init__E                                 
1001b461  ti_sysbios_family_arm_m3_Hwi_getStackInfo__E                              
1001b499  ti_sysbios_family_arm_m3_TaskSupport_start__E                             
1001b4d1  ti_sysbios_heaps_HeapMem_Instance_init__E                                 
1001b509  ti_sysbios_knl_Clock_Instance_init__E                                     
1001b541  ti_sysbios_heaps_HeapMem_init__I                                          
1001b575  ti_sysbios_knl_Clock_construct                                            
1001b5a9  ti_sysbios_knl_Semaphore_create                                           
1001b5dd  ti_sysbios_knl_Swi_restore__E                                             
1001b611  ti_sysbios_knl_Task_blockI__E                                             
1001b645  ti_sysbios_gates_GateMutex_Object__create__S                              
1001b675  ti_sysbios_gates_GateMutex_create                                         
1001b6a5  ti_sysbios_gates_GateMutex_enter__E                                       
1001b6d5  ti_sysbios_knl_Clock_getTicks__E                                          
1001b705  ti_sysbios_knl_Semaphore_construct                                        
1001b735  ti_sysbios_knl_Task_processVitalTaskFlag__I                               
1001b765  ti_sysbios_family_arm_cc26xx_Timer_postInit__I                            
1001b791  ti_sysbios_family_arm_cc26xx_Timer_startup__E                             
1001b791  ti_sysbios_knl_Clock_TimerProxy_startup__E                                
1001b7bd  ti_sysbios_family_arm_m3_Hwi_Object__get__S                               
1001b7e9  ti_sysbios_gates_GateMutex_construct                                      
1001b815  ti_sysbios_hal_Hwi_initStack                                              
1001b841  ti_sysbios_heaps_HeapMem_Object__create__S                                
1001b86d  ti_sysbios_heaps_HeapMem_Object__get__S                                   
1001b899  ti_sysbios_knl_Mailbox_Object__get__S                                     
1001b8c5  ti_sysbios_knl_Mailbox_postInit__I                                        
1001b8f1  ti_sysbios_knl_Queue_construct                                            
1001b91d  ti_sysbios_knl_Queue_create                                               
1001b949  ti_sysbios_knl_Semaphore_pendTimeout__I                                   
1001b975  ti_sysbios_knl_Swi_Object__get__S                                         
1001b9a1  ti_sysbios_knl_Task_unblockI__E                                           
1001b9cd  ti_sysbios_family_arm_cc26xx_TimestampProvider_get64__E                   
1001b9cd  xdc_runtime_Timestamp_SupportProxy_get64__E                               
1001b9cd  xdc_runtime_Timestamp_get64__E                                            
1001b9f5  ti_sysbios_hal_Hwi_Instance_init__E                                       
1001ba1d  ti_sysbios_knl_Clock_addI__E                                              
1001ba45  ti_sysbios_knl_Task_restore__E                                            
1001ba6d  ti_sysbios_family_arm_cc26xx_Timer_Module_startup__E                      
1001ba91  ti_sysbios_gates_GateHwi_Object__create__S                                
1001bab5  ti_sysbios_BIOS_RtsGateProxy_Object__delete__S                            
1001bab5  ti_sysbios_gates_GateMutex_Object__delete__S                              
1001bab5  ti_sysbios_heaps_HeapMem_Module_GateProxy_Object__delete__S               
1001bad9  ti_sysbios_knl_Clock_Object__delete__S                                    
1001bafd  ti_sysbios_knl_Semaphore_Instance_init__E                                 
1001bb21  ti_sysbios_knl_Semaphore_Object__delete__S                                
1001bb45  ti_sysbios_family_arm_cc26xx_Timer_Module__startupDone__S                 
1001bb65  ti_sysbios_family_arm_cc26xx_TimestampProvider_Module_startup__E          
1001bb85  ti_sysbios_family_arm_m3_Hwi_Module__startupDone__S                       
1001bba5  ti_sysbios_family_arm_m3_Hwi_Object__delete__S                            
1001bba5  ti_sysbios_hal_Hwi_HwiProxy_Object__delete__S                             
1001bbc5  ti_sysbios_family_arm_m3_Hwi_excHandler__I                                
1001bbe5  ti_sysbios_gates_GateHwi_Handle__label__S                                 
1001bbe5  xdc_runtime_System_Module_GateProxy_Handle__label__S                      
1001bc05  ti_sysbios_gates_GateHwi_Object__delete__S                                
1001bc05  xdc_runtime_System_Module_GateProxy_Object__delete__S                     
1001bc25  ti_sysbios_BIOS_RtsGateProxy_Handle__label__S                             
1001bc25  ti_sysbios_gates_GateMutex_Handle__label__S                               
1001bc25  ti_sysbios_heaps_HeapMem_Module_GateProxy_Handle__label__S                
1001bc45  ti_sysbios_gates_GateMutex_Object__destruct__S                            
1001bc65  ti_sysbios_hal_Hwi_Object__delete__S                                      
1001bc85  ti_sysbios_heaps_HeapMem_Handle__label__S                                 
1001bc85  xdc_runtime_Memory_HeapProxy_Handle__label__S                             
1001bca5  ti_sysbios_heaps_HeapMem_Object__delete__S                                
1001bca5  xdc_runtime_Memory_HeapProxy_Object__delete__S                            
1001bcc5  ti_sysbios_knl_Clock_Module_startup__E                                    
1001bce5  ti_sysbios_knl_Clock_Object__destruct__S                                  
1001bd05  ti_sysbios_knl_Idle_run__E                                                
1001bd25  ti_sysbios_knl_Mailbox_Object__delete__S                                  
1001bd45  ti_sysbios_knl_Queue_Object__delete__S                                    
1001bd65  ti_sysbios_knl_Queue_Object__get__S                                       
1001bd85  ti_sysbios_knl_Semaphore_Object__destruct__S                              
1001bda5  ti_sysbios_knl_Swi_Object__delete__S                                      
1001bdc5  ti_sysbios_knl_Task_Object__delete__S                                     
1001bde5  ti_sysbios_knl_Task_Object__get__S                                        
1001be05  ti_sysbios_knl_Task_enter__I                                              
1001be25  ti_sysbios_knl_Task_restoreHwi__E                                         
1001be45  ti_sysbios_hal_Hwi_HwiProxy_create                                        
1001be63  ti_sysbios_knl_Clock_logTick__E                                           
1001be65  ti_sysbios_family_arm_m3_Hwi_Object__destruct__S                          
1001be81  ti_sysbios_family_arm_m3_Hwi_setPriority__E                               
1001be9d  ti_sysbios_gates_GateMutex_Instance_init__E                               
1001beb9  ti_sysbios_knl_Clock_scheduleNextTick__E                                  
1001bed5  ti_sysbios_knl_Mailbox_Object__destruct__S                                
1001bef1  ti_sysbios_knl_Queue_Object__destruct__S                                  
1001bf0d  ti_sysbios_knl_Queue_get__E                                               
1001bf29  ti_sysbios_knl_Queue_put__E                                               
1001bf45  ti_sysbios_knl_Swi_Object__destruct__S                                    
1001bf61  ti_sysbios_knl_Task_Object__destruct__S                                   
1001bf7d  ti_sysbios_knl_Task_sleepTimeout__I                                       
1001bf97  ti_sysbios_knl_Swi_Instance_finalize__E                                   
1001bf99  ti_sysbios_gates_GateMutex_leave__E                                       
1001bfb1  ti_sysbios_knl_Task_unblock__E                                            
1001bfc9  ti_sysbios_knl_Clock_Instance_finalize__E                                 
1001bfdf  ti_sysbios_knl_Clock_start__E                                             
1001bff5  ti_sysbios_BIOS_getCpuFreq__E                                             
1001c009  ti_sysbios_family_arm_m3_Hwi_switchFromBootStack__E                       
1001c01d  ti_sysbios_hal_Hwi_Module_startup__E                                      
1001c031  ti_sysbios_BIOS_exit__E                                                   
1001c041  ti_sysbios_BIOS_setThreadType__E                                          
1001c051  ti_sysbios_BIOS_start__E                                                  
1001c061  ti_sysbios_family_arm_m3_Hwi_plug__E                                      
1001c071  ti_sysbios_gates_GateMutex_Instance_finalize__E                           
1001c081  ti_sysbios_hal_Hwi_HwiProxy_Object__create__S                             
1001c091  ti_sysbios_knl_Clock_TimerProxy_getCurrentTick__E                         
1001c0a1  ti_sysbios_knl_Clock_TimerProxy_getMaxTicks__E                            
1001c0b1  ti_sysbios_knl_Clock_TimerProxy_setNextTick__E                            
1001c0c1  ti_sysbios_knl_Semaphore_Instance_finalize__E                             
1001c0d1  ti_sysbios_knl_Swi_disable__E                                             
1001c0e1  ti_sysbios_knl_Swi_enabled__E                                             
1001c0f1  ti_sysbios_knl_Task_disable__E                                            
1001c101  ti_sysbios_heaps_HeapMem_restore__E                                       
1001c10f  ti_sysbios_knl_Queue_empty__E                                             
1001c11d  ti_sysbios_knl_Queue_remove__E                                            
1001c12b  ti_sysbios_family_arm_cc26xx_TimestampProvider_getFreq__E                 
1001c12b  xdc_runtime_Timestamp_SupportProxy_getFreq__E                             
1001c12b  xdc_runtime_Timestamp_getFreq__E                                          
1001c139  ti_sysbios_family_arm_m3_Hwi_Params__init__S                              
1001c139  ti_sysbios_hal_Hwi_HwiProxy_Params__init__S                               
1001c145  ti_sysbios_family_arm_m3_Hwi_disableFxn__E                                
1001c151  ti_sysbios_family_arm_m3_Hwi_enableFxn__E                                 
1001c15d  ti_sysbios_family_arm_m3_TaskSupport_getStackAlignment__E                 
1001c169  ti_sysbios_gates_GateHwi_enter__E                                         
1001c175  ti_sysbios_BIOS_RtsGateProxy_Params__init__S                              
1001c175  ti_sysbios_gates_GateMutex_Params__init__S                                
1001c175  ti_sysbios_heaps_HeapMem_Module_GateProxy_Params__init__S                 
1001c181  ti_sysbios_knl_Clock_Params__init__S                                      
1001c18d  ti_sysbios_knl_Clock_getTimerHandle__E                                    
1001c199  ti_sysbios_knl_Mailbox_Params__init__S                                    
1001c1a5  ti_sysbios_knl_Queue_dequeue__E                                           
1001c1b1  ti_sysbios_knl_Queue_enqueue__E                                           
1001c1bd  ti_sysbios_knl_Semaphore_Params__init__S                                  
1001c1c9  ti_sysbios_knl_Swi_Params__init__S                                        
1001c1d5  ti_sysbios_knl_Task_Params__init__S                                       
1001c1e1  ti_sysbios_knl_Task_self__E                                               
1001c1ed  ti_sysbios_hal_Hwi_Instance_finalize__E                                   
1001c1f7  ti_sysbios_family_arm_m3_Hwi_doSwiRestore__I                              
1001c1ff  ti_sysbios_family_arm_m3_Hwi_startup__E                                   
1001c207  ti_sysbios_knl_Idle_loop__E                                               
1001c20f  ti_sysbios_family_arm_m3_Hwi_doTaskRestore__I                             
1001c215  ti_sysbios_family_arm_m3_Hwi_restoreFxn__E                                
1001c21b  ti_sysbios_gates_GateHwi_leave__E                                         
1001c227  ti_sysbios_knl_Queue_Instance_init__E                                     
1001c22d  ti_sysbios_knl_Queue_elemClear__E                                         
1001c233  ti_sysbios_knl_Swi_Module_startup__E                                      
1001c239  ti_sysbios_knl_Swi_startup__E                                             
1001c23f  ti_sysbios_knl_Task_enable__E                                             
1001c245  ti_sysbios_BIOS_RtsGateProxy_enter__E                                     
1001c249  ti_sysbios_BIOS_RtsGateProxy_leave__E                                     
1001c24d  ti_sysbios_family_arm_cc26xx_Timer_getExpiredTicks__E                     
1001c251  ti_sysbios_family_arm_cc26xx_Timer_getPeriod__E                           
1001c255  ti_sysbios_family_arm_cc26xx_Timer_setPeriod__E                           
1001c259  ti_sysbios_family_arm_m3_Hwi_delete                                       
1001c25d  ti_sysbios_family_arm_m3_Hwi_destruct                                     
1001c261  ti_sysbios_family_arm_m3_TaskSupport_Module__startupDone__S               
1001c265  ti_sysbios_gates_GateHwi_query__E                                         
1001c265  xdc_runtime_System_Module_GateProxy_query__E                              
1001c269  ti_sysbios_gates_GateMutex_delete                                         
1001c26d  ti_sysbios_gates_GateMutex_destruct                                       
1001c271  ti_sysbios_BIOS_RtsGateProxy_query__E                                     
1001c271  ti_sysbios_gates_GateMutex_query__E                                       
1001c271  ti_sysbios_heaps_HeapMem_Module_GateProxy_query__E                        
1001c275  ti_sysbios_hal_Hwi_HwiProxy_Module__startupDone__S                        
1001c279  ti_sysbios_hal_Hwi_HwiProxy_delete                                        
1001c27d  ti_sysbios_hal_Hwi_HwiProxy_disableInterrupt__E                           
1001c27d  ti_sysbios_hal_Hwi_disableInterrupt__E                                    
1001c281  ti_sysbios_hal_Hwi_HwiProxy_enableInterrupt__E                            
1001c281  ti_sysbios_hal_Hwi_enableInterrupt__E                                     
1001c285  ti_sysbios_hal_Hwi_HwiProxy_getStackInfo__E                               
1001c285  ti_sysbios_hal_Hwi_getStackInfo__E                                        
1001c289  ti_sysbios_hal_Hwi_HwiProxy_startup__E                                    
1001c289  ti_sysbios_hal_Hwi_startup__E                                             
1001c28d  ti_sysbios_hal_Hwi_HwiProxy_switchFromBootStack__E                        
1001c291  ti_sysbios_hal_Hwi_delete                                                 
1001c295  ti_sysbios_hal_Hwi_switchFromBootStack__E                                 
1001c299  ti_sysbios_heaps_HeapMem_Module_GateProxy_enter__E                        
1001c29d  ti_sysbios_heaps_HeapMem_Module_GateProxy_leave__E                        
1001c2a1  ti_sysbios_heaps_HeapMem_isBlocking__E                                    
1001c2a5  ti_sysbios_knl_Clock_TimerProxy_Module__startupDone__S                    
1001c2a9  ti_sysbios_knl_Clock_TimerProxy_getExpiredTicks__E                        
1001c2ad  ti_sysbios_knl_Clock_TimerProxy_getPeriod__E                              
1001c2b1  ti_sysbios_knl_Clock_delete                                               
1001c2b5  ti_sysbios_knl_Clock_destruct                                             
1001c2b9  ti_sysbios_knl_Clock_removeI__E                                           
1001c2bd  ti_sysbios_knl_Clock_setTimeout__E                                        
1001c2c1  ti_sysbios_knl_Mailbox_delete                                             
1001c2c5  ti_sysbios_knl_Mailbox_destruct                                           
1001c2c9  ti_sysbios_knl_Queue_delete                                               
1001c2cd  ti_sysbios_knl_Queue_destruct                                             
1001c2d1  ti_sysbios_knl_Queue_head__E                                              
1001c2d5  ti_sysbios_knl_Queue_next__E                                              
1001c2d9  ti_sysbios_knl_Semaphore_delete                                           
1001c2dd  ti_sysbios_knl_Semaphore_destruct                                         
1001c2e1  ti_sysbios_knl_Swi_delete                                                 
1001c2e5  ti_sysbios_knl_Swi_destruct                                               
1001c2e9  ti_sysbios_knl_Swi_postInit__I                                            
1001c2ed  ti_sysbios_knl_Task_SupportProxy_Module__startupDone__S                   
1001c2f1  ti_sysbios_knl_Task_SupportProxy_getStackAlignment__E                     
1001c2f5  ti_sysbios_knl_Task_SupportProxy_start__E                                 
1001c2f9  ti_sysbios_knl_Task_SupportProxy_swap__E                                  
1001c2fd  ti_sysbios_knl_Task_delete                                                
1001c301  ti_sysbios_knl_Task_destruct                                              
1001c305  ti_sysbios_knl_Task_startup__E                                            
1001c309  xdc_runtime_Startup_startMods__I                                          
1001c401  xdc_runtime_Core_createObject__I                                          
1001c483  xdc_runtime_Error_policySpin__E                                           
1001c485  xdc_runtime_Memory_alloc__E                                               
1001c4f5  xdc_runtime_Core_deleteObject__I                                          
1001c555  xdc_runtime_Startup_exec__E                                               
1001c5a5  xdc_runtime_Assert_raise__I                                               
1001c5ed  xdc_runtime_Core_assignParams__I                                          
1001c635  xdc_runtime_Core_constructObject__I                                       
1001c67d  xdc_runtime_System_atexit__E                                              
1001c6b5  xdc_runtime_System_processAtExit__E                                       
1001c6e9  xdc_runtime_Core_assignLabel__I                                           
1001c719  xdc_runtime_Text_cordText__E                                              
1001c745  xdc_runtime_System_abort__E                                               
1001c765  xdc_runtime_Error_raiseX__E                                               
1001c781  xdc_runtime_Memory_valloc__E                                              
1001c79d  xdc_runtime_Core_destructObject__I                                        
1001c7b5  xdc_runtime_Error_check__E                                                
1001c7cd  xdc_runtime_System_exit__E                                                
1001c7e5  xdc_runtime_Text_ropeText__E                                              
1001c7fd  xdc_runtime_Memory_free__E                                                
1001c80d  xdc_runtime_SysCallback_abort__E                                          
1001c81d  xdc_runtime_SysCallback_exit__E                                           
1001c82d  xdc_runtime_Timestamp_SupportProxy_get32__E                               
1001c82d  xdc_runtime_Timestamp_get32__E                                            
1001c83d  xdc_runtime_Error_init__E                                                 
1001c849  xdc_runtime_Memory_calloc__E                                              
1001c855  xdc_runtime_Memory_getMaxDefaultTypeAlign__E                              
1001c875  xdc_runtime_Gate_leaveSystem__E                                           
1001c87b  xdc_runtime_System_Module_startup__E                                      
1001c881  xdc_runtime_Gate_enterSystem__E                                           
1001c885  xdc_runtime_Memory_HeapProxy_alloc__E                                     
1001c889  xdc_runtime_Memory_HeapProxy_free__E                                      
1001c88d  xdc_runtime_System_Module_GateProxy_enter__E                              
1001c891  xdc_runtime_System_Module_GateProxy_leave__E                              
1001c895  xdc_runtime_System_abortSpin__E                                           
1001c897  xdc_runtime_System_exitSpin__E                                            
1001c899  ti_sysbios_family_arm_m3_Hwi_dispatch__I                                  
1001c969  ti_sysbios_family_arm_m3_TaskSupport_buildTaskStack                       
1001c9b5  ti_sysbios_family_arm_m3_Hwi_initStacks__E                                
1001c9fd  ti_sysbios_family_arm_m3_Hwi_excHandlerAsm__I                             
1001ca1d  ti_sysbios_family_xxx_Hwi_switchAndRunFunc                                
1001ca3b  ti_sysbios_family_arm_m3_Hwi_pendSV__I                                    
1001ca53  ti_sysbios_family_arm_m3_Hwi_return                                       
1001ca55  ti_sysbios_family_arm_m3_TaskSupport_glue                                 
1001ca65  ti_sysbios_family_arm_m3_TaskSupport_swap__E                              
1001ca6d  ti_sysbios_knl_Task_swapReturn                                            
1001ca97  ti_sysbios_rom_cortexm_cc13xx_CC13xx_getRevision__E                       
20000000  ti_sysbios_family_arm_m3_Hwi_ramVectors                                   
20000100  ti_sysbios_knl_Task_Module__state__V                                      
20000144  ti_sysbios_family_arm_m3_Hwi_Module__state__V                             
20000178  ti_sysbios_knl_Clock_Module__state__V                                     
200001a4  ti_sysbios_BIOS_Module__state__V                                          
200001c8  ti_sysbios_knl_Swi_Module__state__V                                       
200001e4  ti_sysbios_family_arm_cc26xx_Timer_Module__state__V                       
200001ec  ti_sysbios_family_arm_cc26xx_TimestampProvider_Module__state__V           
200001f0  xdc_runtime_Startup_Module__state__V                                      
200001f8  xdc_runtime_System_Module__state__V                                       
20000200  xdc_runtime_Memory_Module__state__V                                       
20000da0  ti_sysbios_heaps_HeapMem_Instance_State_0_buf__A                          
200011a0  ti_sysbios_knl_Task_Instance_State_0_stack__A                             
200013a0  spiCC26XXDMAObjects                                                       
20001558  uartCC26XXObjects                                                         
20001684  PIN_NumPins                                                               
20001788  ti_sysbios_family_arm_m3_Hwi_dispatchTable                                
20001990  PIN_HandleTable                                                           
20001a0c  displaySharpObject                                                        
20001a78  txTask                                                                    
20001c24  displayUartObject                                                         
20001c44  uartCC26XXRingBuffer                                                      
20001c64  udmaObjects                                                               
20001dd9  driverlib_release_0_47020                                                 
20001de0  PowerCC26XX_module                                                        
20001f48  ti_sysbios_knl_Task_Object__table__V                                      
20001f98  ti_sysbios_family_arm_cc26xx_Timer_Object__table__V                       
20001fe0  ti_sysbios_gates_GateMutex_Object__table__V                               
20002018  ti_sysbios_knl_Swi_Module_State_0_readyQ__A                               
20002048  ti_sysbios_knl_Swi_Object__table__V                                       
20002078  RF_cmdPropRadioDivSetup                                                   
200020a0  ti_sysbios_knl_Clock_Object__table__V                                     
200020c0  ti_sysbios_knl_Task_Module_State_0_readyQ__A                              
200020e0  RF_cmdFs                                                                  
200020f8  RF_cmdPropTx                                                              
20002110  ti_sysbios_family_arm_m3_Hwi_Object__table__V                             
20002128  ti_sysbios_heaps_HeapMem_Object__table__V                                 
20002140  RF_prop                                                                   
20002150  pinTable                                                                  
2000215c  _lock                                                                     
20002160  _unlock                                                                   
20002164  buttonPinTable                                                            
2000216c  ti_sysbios_family_arm_m3_Hwi_Module__root__V                              
20002174  ti_sysbios_gates_GateHwi_Module__root__V                                  
2000217c  ti_sysbios_gates_GateMutex_Module__root__V                                
20002184  ti_sysbios_hal_Hwi_Module__root__V                                        
2000218c  ti_sysbios_heaps_HeapMem_Module__root__V                                  
20002194  ti_sysbios_knl_Clock_Module__root__V                                      
2000219c  ti_sysbios_knl_Mailbox_Module__root__V                                    
200021a4  ti_sysbios_knl_Queue_Module__root__V                                      
200021ac  ti_sysbios_knl_Semaphore_Module__root__V                                  
200021b4  ti_sysbios_knl_Swi_Module__root__V                                        
200021bc  ti_sysbios_knl_Task_Module__root__V                                       
200021cc  main_func_sp                                                              
200021d0  ti_sysbios_family_arm_m3_Hwi_Module_State_0_excContext__A                 
200021d4  ti_sysbios_family_arm_m3_Hwi_Module_State_0_excStack__A                   
200021d8  ti_sysbios_knl_Task_Module_State_0_idleTask__A                            
200021e0  ti_sysbios_family_arm_m3_Hwi_Module_State_0_excActive__A                  
20004d00  __stack                                                                   
20005000  __STACK_END                                                               
e000e000  ti_sysbios_family_arm_m3_Hwi_nvic                                         
ffffffff  __TI_pprof_out_hndl                                                       
ffffffff  __TI_prof_data_size                                                       
ffffffff  __TI_prof_data_start                                                      
ffffffff  __binit__                                                                 
ffffffff  __c_args__                                                                
ffffffff  binit                                                                     
UNDEFED   HwiP_restore                                                              
UNDEFED   SHT$$INIT_ARRAY$$Base                                                     
UNDEFED   SHT$$INIT_ARRAY$$Limit                                                    
UNDEFED   ti_sysbios_BIOS_RtsGateProxy_Handle__label__S__mangled__                  
UNDEFED   ti_sysbios_BIOS_RtsGateProxy_Object__delete__S__mangled__                 
UNDEFED   ti_sysbios_BIOS_RtsGateProxy_Params__init__S__mangled__                   
UNDEFED   ti_sysbios_BIOS_RtsGateProxy_query__E__mangled__                          
UNDEFED   ti_sysbios_hal_Hwi_HwiProxy_Module__startupDone__S__mangled__             
UNDEFED   ti_sysbios_hal_Hwi_HwiProxy_Object__delete__S__mangled__                  
UNDEFED   ti_sysbios_hal_Hwi_HwiProxy_Params__init__S__mangled__                    
UNDEFED   ti_sysbios_hal_Hwi_HwiProxy_disableInterrupt__E__mangled__                
UNDEFED   ti_sysbios_hal_Hwi_HwiProxy_enableInterrupt__E__mangled__                 
UNDEFED   ti_sysbios_hal_Hwi_HwiProxy_getStackInfo__E__mangled__                    
UNDEFED   ti_sysbios_hal_Hwi_HwiProxy_startup__E__mangled__                         
UNDEFED   ti_sysbios_hal_Hwi_HwiProxy_switchFromBootStack__E__mangled__             
UNDEFED   ti_sysbios_hal_Hwi_disableInterrupt__E                                    
UNDEFED   ti_sysbios_hal_Hwi_enableInterrupt__E                                     
UNDEFED   ti_sysbios_hal_Hwi_getStackInfo__E                                        
UNDEFED   ti_sysbios_hal_Hwi_startup__E                                             
UNDEFED   ti_sysbios_hal_Hwi_switchFromBootStack__E                                 
UNDEFED   ti_sysbios_heaps_HeapMem_Module_GateProxy_Handle__label__S__mangled__     
UNDEFED   ti_sysbios_heaps_HeapMem_Module_GateProxy_Object__delete__S__mangled__    
UNDEFED   ti_sysbios_heaps_HeapMem_Module_GateProxy_Params__init__S__mangled__      
UNDEFED   ti_sysbios_heaps_HeapMem_Module_GateProxy_query__E__mangled__             
UNDEFED   ti_sysbios_knl_Clock_TimerProxy_Module__startupDone__S__mangled__         
UNDEFED   ti_sysbios_knl_Clock_TimerProxy_startup__E__mangled__                     
UNDEFED   ti_sysbios_knl_Task_SupportProxy_Module__startupDone__S__mangled__        
UNDEFED   ti_sysbios_knl_Task_SupportProxy_getStackAlignment__E__mangled__          
UNDEFED   ti_sysbios_knl_Task_SupportProxy_start__E__mangled__                      
UNDEFED   ti_sysbios_knl_Task_SupportProxy_swap__E__mangled__                       
UNDEFED   xdc_runtime_Main_Module_GateProxy_Handle__label__S                        
UNDEFED   xdc_runtime_Main_Module_GateProxy_Object__delete__S                       
UNDEFED   xdc_runtime_Main_Module_GateProxy_query__E                                
UNDEFED   xdc_runtime_Memory_HeapProxy_Handle__label__S__mangled__                  
UNDEFED   xdc_runtime_Memory_HeapProxy_Object__delete__S__mangled__                 
UNDEFED   xdc_runtime_System_Module_GateProxy_Handle__label__S__mangled__           
UNDEFED   xdc_runtime_System_Module_GateProxy_Object__delete__S__mangled__          
UNDEFED   xdc_runtime_System_Module_GateProxy_query__E__mangled__                   
UNDEFED   xdc_runtime_System_SupportProxy_abort__E                                  
UNDEFED   xdc_runtime_System_SupportProxy_exit__E                                   
UNDEFED   xdc_runtime_Timestamp_SupportProxy_get64__E__mangled__                    
UNDEFED   xdc_runtime_Timestamp_SupportProxy_getFreq__E__mangled__                  
UNDEFED   xdc_runtime_Timestamp_get32__E                                            
UNDEFED   xdc_runtime_Timestamp_get64__E                                            
UNDEFED   xdc_runtime_Timestamp_getFreq__E                                          

[826 symbols]
